(dp1
S'output'
p2
S"<type 'exceptions.TypeError'> 'Set' object is not iterable"
p3
sS'layer'
p4
S'C:\\Users\\Leandro\\Documents\\CJR\\DIPRO\\PROJETOS\\G\xeanios\\genios\\ProjetoGenios\\web2py\\applications\\Genios\\views\\administrador/cidades.html'
p5
sS'code'
p6
S'response.write(\'<head>\\r\\n    \', escape=False)\nresponse.files.insert(0,URL(\'static\',\'css/bootstrap-responsive.min.css\'))\nresponse.files.insert(1,URL(\'static\',\'css/bootstrap.min.css\'))\nresponse.files.insert(2,URL(\'static\',\'css/style.css\'))\nresponse.write(\'\\r\\n    \\r\\n    \', escape=False)\nresponse.write(\'<script type="text/javascript"><!--\\r\\n    // These variables are used by the web2py_ajax_init function in web2py_ajax.js (which is loaded below).\\r\\n    var w2p_ajax_confirm_message = "\', escape=False)\nresponse.write(T(\'Are you sure you want to delete this object?\'))\nresponse.write(\'";\\r\\n    var w2p_ajax_disable_with_message = "\', escape=False)\nresponse.write(T(\'Working...\'))\nresponse.write(\'";\\r\\n    var w2p_ajax_date_format = "\', escape=False)\nresponse.write(T(\'%Y-%m-%d\'))\nresponse.write(\'";\\r\\n    var w2p_ajax_datetime_format = "\', escape=False)\nresponse.write(T(\'%Y-%m-%d %H:%M:%S\'))\nresponse.write(\'";\\r\\n    var ajax_error_500 = \\\'\', escape=False)\nresponse.write(T.M(\'An error occured, please [[reload %s]] the page\') % URL(args=request.args, vars=request.get_vars))\nresponse.write("\'\\r\\n    //--></script>\\r\\n", escape=False)\nresponse.files.insert(0,URL(\'static\',\'js/jquery.js\'))\nresponse.files.insert(1,URL(\'static\',\'css/calendar.css\'))\nresponse.files.insert(2,URL(\'static\',\'js/calendar.js\'))\nresponse.files.insert(3,URL(\'static\',\'js/web2py.js\'))\nresponse.include_meta()\nresponse.include_files()\nresponse.write(\'\\r\\n\', escape=False)\nresponse.write(\'\\r\\n\\r\\n    <title>\', escape=False)\nresponse.write("Genios")\nresponse.write(\'</title>\\r\\n\\r\\n    \', escape=False)\nresponse.write(\'\\r\\n    \', escape=False)\nresponse.write(\'\\r\\n</head>\\r\\n\\r\\n<div id="body">\\r\\n    <div id="wrap">\\r\\n        <header>\\r\\n            <div class="logo"></div>\\r\\n            \', escape=False)\nresponse.write(MENU(response.menu, _class=\'menu_genios\'))\nresponse.write(\'\\r\\n        </header>\\r\\n        <div id="conteudo">\\r\\n            \', escape=False)\nresponse.write(\'\\r\\n\\r\\n\\r\\n<div>\\r\\n    \', escape=False)\nfor regiao in lista:\n    response.write(\'\\r\\n    \\r\\n        <div>\\r\\n            \', escape=False)\n    response.write(regiao)\n    response.write(\'\\r\\n        </div>\\r\\n    \\r\\n    \', escape=False)\n    pass\nresponse.write(\'\\r\\n</div>\\r\\n\', escape=False)\nresponse.write(\'\\r\\n        </div>\\r\\n        <footer style="width:960px; height:100px">\\r\\n            <div id="footer-left" class="span2">\\r\\n                \', escape=False)\nresponse.write(IMG( _src=(URL(\'static\',\'images/cjr.png\'))))\nresponse.write(\'\\r\\n                Desenvolvido Por:              \\r\\n            </div>\\r\\n            <div id="footer-center" class="span8">\\r\\n                <p>\\r\\n                    Endere\\xc3\\xa7o: XXXXXXXXXXXXX - XXXXXXXXXXXXXX\\r\\n                </p>\\r\\n               <p>\\r\\n                   Telefone: XXXX-XXXX\\r\\n                </p>\\r\\n            </div>\\r\\n            <div id="footer-right" class="span2">\\r\\n                \', escape=False)\nresponse.write(IMG( _src=(URL(\'static\',\'images/facebook.png\'))))\nresponse.write(\'\\r\\n            </div>        \\r\\n        </footer>\\r\\n    </div>\\r\\n</div>\\r\\n\', escape=False)'
p7
sS'snapshot'
p8
(dp9
S'exception'
p10
(dp11
S'__hash__'
p12
S"<method-wrapper '__hash__' of exceptions.TypeError object>"
p13
sS'__setattr__'
p14
S"<method-wrapper '__setattr__' of exceptions.TypeError object>"
p15
sS'__reduce_ex__'
p16
S'<built-in method __reduce_ex__ of exceptions.TypeError object>'
p17
sS'__getslice__'
p18
S"<method-wrapper '__getslice__' of exceptions.TypeError object>"
p19
sS'__getitem__'
p20
S"<method-wrapper '__getitem__' of exceptions.TypeError object>"
p21
sS'__setstate__'
p22
S'<built-in method __setstate__ of exceptions.TypeError object>'
p23
sS'__reduce__'
p24
S'<built-in method __reduce__ of exceptions.TypeError object>'
p25
sS'__str__'
p26
S"<method-wrapper '__str__' of exceptions.TypeError object>"
p27
sS'__format__'
p28
S'<built-in method __format__ of exceptions.TypeError object>'
p29
sS'__getattribute__'
p30
S"<method-wrapper '__getattribute__' of exceptions.TypeError object>"
p31
sS'__class__'
p32
S"<type 'exceptions.TypeError'>"
p33
sS'__unicode__'
p34
S'<built-in method __unicode__ of exceptions.TypeError object>'
p35
sS'__delattr__'
p36
S"<method-wrapper '__delattr__' of exceptions.TypeError object>"
p37
sS'__subclasshook__'
p38
S'<built-in method __subclasshook__ of type object>'
p39
sS'__repr__'
p40
S"<method-wrapper '__repr__' of exceptions.TypeError object>"
p41
sS'args'
p42
S'("\'Set\' object is not iterable",)'
p43
sS'__dict__'
p44
S'{}'
p45
sS'__sizeof__'
p46
S'<built-in method __sizeof__ of exceptions.TypeError object>'
p47
sS'__doc__'
p48
S"'Inappropriate argument type.'"
p49
sS'__init__'
p50
S"<method-wrapper '__init__' of exceptions.TypeError object>"
p51
sS'__new__'
p52
S'<built-in method __new__ of type object>'
p53
ssS'evalue'
p54
S"'Set' object is not iterable"
p55
sS'request'
p56
cgluon.html
XML_unpickle
p57
(S's<b\x00\x00<div><table><tr><td style="font-weight:bold;vertical-align:top;">ajax</td><td style="vertical-align:top;">:</td><td><div>False</div></td></tr><tr><td style="font-weight:bold;vertical-align:top;">application</td><td style="vertical-align:top;">:</td><td><div>Genios</div></td></tr><tr><td style="font-weight:bold;vertical-align:top;">args</td><td style="vertical-align:top;">:</td><td><div><table></table></div></td></tr><tr><td style="font-weight:bold;vertical-align:top;">cid</td><td style="vertical-align:top;">:</td><td><div>None</div></td></tr><tr><td style="font-weight:bold;vertical-align:top;">client</td><td style="vertical-align:top;">:</td><td><div>127.0.0.1</div></td></tr><tr><td style="font-weight:bold;vertical-align:top;">controller</td><td style="vertical-align:top;">:</td><td><div>administrador</div></td></tr><tr><td style="font-weight:bold;vertical-align:top;">cookies</td><td style="vertical-align:top;">:</td><td><div><table><tr><td style="font-weight:bold;vertical-align:top;">session_id_admin</td><td style="vertical-align:top;">:</td><td><div>127.0.0.1-923b1c92-b33d-4ea6-bb9e-348848effb1e<table><tr><td style="font-weight:bold;vertical-align:top;">comment</td><td style="vertical-align:top;">:</td><td><div></div></td></tr><tr><td style="font-weight:bold;vertical-align:top;">domain</td><td style="vertical-align:top;">:</td><td><div></div></td></tr><tr><td style="font-weight:bold;vertical-align:top;">expires</td><td style="vertical-align:top;">:</td><td><div></div></td></tr><tr><td style="font-weight:bold;vertical-align:top;">httponly</td><td style="vertical-align:top;">:</td><td><div></div></td></tr><tr><td style="font-weight:bold;vertical-align:top;">max-age</td><td style="vertical-align:top;">:</td><td><div></div></td></tr><tr><td style="font-weight:bold;vertical-align:top;">path</td><td style="vertical-align:top;">:</td><td><div></div></td></tr><tr><td style="font-weight:bold;vertical-align:top;">secure</td><td style="vertical-align:top;">:</td><td><div></div></td></tr><tr><td style="font-weight:bold;vertical-align:top;">version</td><td style="vertical-align:top;">:</td><td><div></div></td></tr></table></div></td></tr><tr><td style="font-weight:bold;vertical-align:top;">session_id_genios</td><td style="vertical-align:top;">:</td><td><div>127.0.0.1-0cad6233-22cc-48e9-a2b5-0591ce00c77b<table><tr><td style="font-weight:bold;vertical-align:top;">comment</td><td style="vertical-align:top;">:</td><td><div></div></td></tr><tr><td style="font-weight:bold;vertical-align:top;">domain</td><td style="vertical-align:top;">:</td><td><div></div></td></tr><tr><td style="font-weight:bold;vertical-align:top;">expires</td><td style="vertical-align:top;">:</td><td><div></div></td></tr><tr><td style="font-weight:bold;vertical-align:top;">httponly</td><td style="vertical-align:top;">:</td><td><div></div></td></tr><tr><td style="font-weight:bold;vertical-align:top;">max-age</td><td style="vertical-align:top;">:</td><td><div></div></td></tr><tr><td style="font-weight:bold;vertical-align:top;">path</td><td style="vertical-align:top;">:</td><td><div></div></td></tr><tr><td style="font-weight:bold;vertical-align:top;">secure</td><td style="vertical-align:top;">:</td><td><div></div></td></tr><tr><td style="font-weight:bold;vertical-align:top;">version</td><td style="vertical-align:top;">:</td><td><div></div></td></tr></table></div></td></tr><tr><td style="font-weight:bold;vertical-align:top;">session_id_welcome</td><td style="vertical-align:top;">:</td><td><div>127.0.0.1-116805aa-9b87-4ad0-bf69-74a8c9df232a<table><tr><td style="font-weight:bold;vertical-align:top;">comment</td><td style="vertical-align:top;">:</td><td><div></div></td></tr><tr><td style="font-weight:bold;vertical-align:top;">domain</td><td style="vertical-align:top;">:</td><td><div></div></td></tr><tr><td style="font-weight:bold;vertical-align:top;">expires</td><td style="vertical-align:top;">:</td><td><div></div></td></tr><tr><td style="font-weight:bold;vertical-align:top;">httponly</td><td style="vertical-align:top;">:</td><td><div></div></td></tr><tr><td style="font-weight:bold;vertical-align:top;">max-age</td><td style="vertical-align:top;">:</td><td><div></div></td></tr><tr><td style="font-weight:bold;vertical-align:top;">path</td><td style="vertical-align:top;">:</td><td><div></div></td></tr><tr><td style="font-weight:bold;vertical-align:top;">secure</td><td style="vertical-align:top;">:</td><td><div></div></td></tr><tr><td style="font-weight:bold;vertical-align:top;">version</td><td style="vertical-align:top;">:</td><td><div></div></td></tr></table></div></td></tr></table></div></td></tr><tr><td style="font-weight:bold;vertical-align:top;">env</td><td style="vertical-align:top;">:</td><td><div><table><tr><td style="font-weight:bold;vertical-align:top;">HTTP_ACCEPT</td><td style="vertical-align:top;">:</td><td><div>text/html,application/xhtml+xml,application/xml;q=0.9,image/webp,*/*;q=0.8</div></td></tr><tr><td style="font-weight:bold;vertical-align:top;">HTTP_ACCEPT_ENCODING</td><td style="vertical-align:top;">:</td><td><div>gzip,deflate,sdch</div></td></tr><tr><td style="font-weight:bold;vertical-align:top;">HTTP_ACCEPT_LANGUAGE</td><td style="vertical-align:top;">:</td><td><div>en-US,en;q=0.8,pt;q=0.6</div></td></tr><tr><td style="font-weight:bold;vertical-align:top;">HTTP_CACHE_CONTROL</td><td style="vertical-align:top;">:</td><td><div>max-age=0</div></td></tr><tr><td style="font-weight:bold;vertical-align:top;">HTTP_CONNECTION</td><td style="vertical-align:top;">:</td><td><div>keep-alive</div></td></tr><tr><td style="font-weight:bold;vertical-align:top;">HTTP_COOKIE</td><td style="vertical-align:top;">:</td><td><div>session_id_welcome=127.0.0.1-116805aa-9b87-4ad0-bf69-74a8c9df232a; session_id_genios=127.0.0.1-0cad6233-22cc-48e9-a2b5-0591ce00c77b; session_id_admin=127.0.0.1-923b1c92-b33d-4ea6-bb9e-348848effb1e</div></td></tr><tr><td style="font-weight:bold;vertical-align:top;">HTTP_HOST</td><td style="vertical-align:top;">:</td><td><div>127.0.0.1:8000</div></td></tr><tr><td style="font-weight:bold;vertical-align:top;">HTTP_REFERER</td><td style="vertical-align:top;">:</td><td><div>http://127.0.0.1:8000/admin/default/edit/Genios/models/db.py</div></td></tr><tr><td style="font-weight:bold;vertical-align:top;">HTTP_USER_AGENT</td><td style="vertical-align:top;">:</td><td><div>Mozilla/5.0 (Windows NT 6.2; WOW64) AppleWebKit/537.36 (KHTML, like Gecko) Chrome/35.0.1916.114 Safari/537.36</div></td></tr><tr><td style="font-weight:bold;vertical-align:top;">PATH_INFO</td><td style="vertical-align:top;">:</td><td><div>/Genios/administrador/cidades</div></td></tr><tr><td style="font-weight:bold;vertical-align:top;">QUERY_STRING</td><td style="vertical-align:top;">:</td><td><div></div></td></tr><tr><td style="font-weight:bold;vertical-align:top;">REMOTE_ADDR</td><td style="vertical-align:top;">:</td><td><div>127.0.0.1</div></td></tr><tr><td style="font-weight:bold;vertical-align:top;">REMOTE_PORT</td><td style="vertical-align:top;">:</td><td><div>53183</div></td></tr><tr><td style="font-weight:bold;vertical-align:top;">REQUEST_METHOD</td><td style="vertical-align:top;">:</td><td><div>GET</div></td></tr><tr><td style="font-weight:bold;vertical-align:top;">SCRIPT_NAME</td><td style="vertical-align:top;">:</td><td><div></div></td></tr><tr><td style="font-weight:bold;vertical-align:top;">SERVER_NAME</td><td style="vertical-align:top;">:</td><td><div>PC_LEO</div></td></tr><tr><td style="font-weight:bold;vertical-align:top;">SERVER_PORT</td><td style="vertical-align:top;">:</td><td><div>8000</div></td></tr><tr><td style="font-weight:bold;vertical-align:top;">SERVER_PROTOCOL</td><td style="vertical-align:top;">:</td><td><div>HTTP/1.1</div></td></tr><tr><td style="font-weight:bold;vertical-align:top;">SERVER_SOFTWARE</td><td style="vertical-align:top;">:</td><td><div>Rocket 1.2.6</div></td></tr><tr><td style="font-weight:bold;vertical-align:top;">app_folders</td><td style="vertical-align:top;">:</td><td><div>set([&#x27;C:\\\\Users\\\\Leandro\\\\Documents\\\\CJR\\\\DIPRO\\\\PROJETOS\\\\G\\xeanios\\\\genios\\\\ProjetoGenios\\\\web2py\\\\applications\\\\admin\\\\&#x27;, &#x27;C:\\\\Users\\\\Leandro\\\\Documents\\\\CJR\\\\DIPRO\\\\PROJETOS\\\\G\\xeanios\\\\genios\\\\ProjetoGenios\\\\web2py\\\\applications\\\\welcome\\\\&#x27;, &#x27;C:\\\\Users\\\\Leandro\\\\Documents\\\\CJR\\\\DIPRO\\\\PROJETOS\\\\G\\xeanios\\\\genios\\\\ProjetoGenios\\\\web2py\\\\applications\\\\Genios\\\\&#x27;])</div></td></tr><tr><td style="font-weight:bold;vertical-align:top;">applications_parent</td><td style="vertical-align:top;">:</td><td><div>C:\\Users\\Leandro\\Documents\\CJR\\DIPRO\\PROJETOS\\G\xeanios\\genios\\ProjetoGenios\\web2py</div></td></tr><tr><td style="font-weight:bold;vertical-align:top;">cmd_args</td><td style="vertical-align:top;">:</td><td><div><table></table></div></td></tr><tr><td style="font-weight:bold;vertical-align:top;">cmd_options</td><td style="vertical-align:top;">:</td><td><div>&lt;Values at 0x2e81e18: {&#x27;verbose&#x27;: False, &#x27;ip&#x27;: &#x27;127.0.0.1&#x27;, &#x27;debuglevel&#x27;: 30, &#x27;with_scheduler&#x27;: False, &#x27;ips&#x27;: [&#x27;172.30.36.253&#x27;, &#x27;192.168.129.236&#x27;, &#x27;fe80::d87f:bcf3:7142:73f4%12&#x27;, &#x27;fe80::2c01:c2a:dede:17a1%13&#x27;, &#x27;fe80::ec1f:2d88:f68:a805%21&#x27;, &#x27;192.168.56.1&#x27;], &#x27;shutdown_timeout&#x27;: 5, &#x27;taskbar&#x27;: False, &#x27;with_coverage&#x27;: False, &#x27;port&#x27;: 8000, &#x27;maxthreads&#x27;: None, &#x27;softcron&#x27;: False, &#x27;server_name&#x27;: &#x27;PC_LEO&#x27;, &#x27;bpython&#x27;: False, &#x27;nogui&#x27;: False, &#x27;pid_filename&#x27;: &#x27;httpserver.pid&#x27;, &#x27;extcron&#x27;: False, &#x27;runcron&#x27;: False, &#x27;run_system_tests&#x27;: False, &#x27;test&#x27;: None, &#x27;folder&#x27;: &#x27;C:\\\\Users\\\\Leandro\\\\Documents\\\\CJR\\\\DIPRO\\\\PROJETOS\\\\G\\xeanios\\\\genios\\\\ProjetoGenios\\\\web2py&#x27;, &#x27;config&#x27;: &#x27;&#x27;, &#x27;minthreads&#x27;: None, &#x27;shell&#x27;: None, &#x27;run&#x27;: &#x27;&#x27;, &#x27;log_filename&#x27;: &#x27;httpserver.log&#x27;, &#x27;profiler_dir&#x27;: None, &#x27;args&#x27;: [&#x27;&#x27;], &#x27;socket_timeout&#x27;: 5, &#x27;ssl_ca_certificate&#x27;: None, &#x27;scheduler&#x27;: None, &#x27;interfaces&#x27;: None, &#x27;ssl_private_key&#x27;: &#x27;&#x27;, &#x27;scheduler_groups&#x27;: None, &#x27;password&#x27;: &#x27;&lt;ask&gt;&#x27;, &#x27;request_queue_size&#x27;: 5, &#x27;ssl_certificate&#x27;: &#x27;&#x27;, &#x27;cronjob&#x27;: False, &#x27;numthreads&#x27;: None, &#x27;quiet&#x27;: False, &#x27;import_models&#x27;: False, &#x27;timeout&#x27;: 10, &#x27;plain&#x27;: False, &#x27;nobanner&#x27;: False}&gt;</div></td></tr><tr><td style="font-weight:bold;vertical-align:top;">db_sessions</td><td style="vertical-align:top;">:</td><td><div>set([])</div></td></tr><tr><td style="font-weight:bold;vertical-align:top;">debugging</td><td style="vertical-align:top;">:</td><td><div>True</div></td></tr><tr><td style="font-weight:bold;vertical-align:top;">gluon_parent</td><td style="vertical-align:top;">:</td><td><div>C:\\Users\\Leandro\\Documents\\CJR\\DIPRO\\PROJETOS\\G\xeanios\\genios\\ProjetoGenios\\web2py</div></td></tr><tr><td style="font-weight:bold;vertical-align:top;">http_accept</td><td style="vertical-align:top;">:</td><td><div>text/html,application/xhtml+xml,application/xml;q=0.9,image/webp,*/*;q=0.8</div></td></tr><tr><td style="font-weight:bold;vertical-align:top;">http_accept_encoding</td><td style="vertical-align:top;">:</td><td><div>gzip,deflate,sdch</div></td></tr><tr><td style="font-weight:bold;vertical-align:top;">http_accept_language</td><td style="vertical-align:top;">:</td><td><div>en-US,en;q=0.8,pt;q=0.6</div></td></tr><tr><td style="font-weight:bold;vertical-align:top;">http_cache_control</td><td style="vertical-align:top;">:</td><td><div>max-age=0</div></td></tr><tr><td style="font-weight:bold;vertical-align:top;">http_connection</td><td style="vertical-align:top;">:</td><td><div>keep-alive</div></td></tr><tr><td style="font-weight:bold;vertical-align:top;">http_cookie</td><td style="vertical-align:top;">:</td><td><div>session_id_welcome=127.0.0.1-116805aa-9b87-4ad0-bf69-74a8c9df232a; session_id_genios=127.0.0.1-0cad6233-22cc-48e9-a2b5-0591ce00c77b; session_id_admin=127.0.0.1-923b1c92-b33d-4ea6-bb9e-348848effb1e</div></td></tr><tr><td style="font-weight:bold;vertical-align:top;">http_host</td><td style="vertical-align:top;">:</td><td><div>127.0.0.1:8000</div></td></tr><tr><td style="font-weight:bold;vertical-align:top;">http_referer</td><td style="vertical-align:top;">:</td><td><div>http://127.0.0.1:8000/admin/default/edit/Genios/models/db.py</div></td></tr><tr><td style="font-weight:bold;vertical-align:top;">http_user_agent</td><td style="vertical-align:top;">:</td><td><div>Mozilla/5.0 (Windows NT 6.2; WOW64) AppleWebKit/537.36 (KHTML, like Gecko) Chrome/35.0.1916.114 Safari/537.36</div></td></tr><tr><td style="font-weight:bold;vertical-align:top;">is_jython</td><td style="vertical-align:top;">:</td><td><div>False</div></td></tr><tr><td style="font-weight:bold;vertical-align:top;">is_pypy</td><td style="vertical-align:top;">:</td><td><div>False</div></td></tr><tr><td style="font-weight:bold;vertical-align:top;">is_source</td><td style="vertical-align:top;">:</td><td><div>False</div></td></tr><tr><td style="font-weight:bold;vertical-align:top;">local_hosts</td><td style="vertical-align:top;">:</td><td><div><table><tr><td><div>172.30.36.253</div></td></tr><tr><td><div>::ffff:127.0.0.1</div></td></tr><tr><td><div>::1</div></td></tr><tr><td><div>192.168.129.236</div></td></tr><tr><td><div>fe80::d87f:bcf3:7142:73f4%12</div></td></tr><tr><td><div>PC_LEO</div></td></tr><tr><td><div>fe80::2c01:c2a:dede:17a1%13</div></td></tr><tr><td><div>fe80::ec1f:2d88:f68:a805%21</div></td></tr><tr><td><div>127.0.0.1</div></td></tr><tr><td><div>192.168.56.1</div></td></tr></table></div></td></tr><tr><td style="font-weight:bold;vertical-align:top;">path_info</td><td style="vertical-align:top;">:</td><td><div>/Genios/administrador/cidades</div></td></tr><tr><td style="font-weight:bold;vertical-align:top;">query_string</td><td style="vertical-align:top;">:</td><td><div></div></td></tr><tr><td style="font-weight:bold;vertical-align:top;">remote_addr</td><td style="vertical-align:top;">:</td><td><div>127.0.0.1</div></td></tr><tr><td style="font-weight:bold;vertical-align:top;">remote_port</td><td style="vertical-align:top;">:</td><td><div>53183</div></td></tr><tr><td style="font-weight:bold;vertical-align:top;">request_method</td><td style="vertical-align:top;">:</td><td><div>GET</div></td></tr><tr><td style="font-weight:bold;vertical-align:top;">request_uri</td><td style="vertical-align:top;">:</td><td><div>/Genios/administrador/cidades</div></td></tr><tr><td style="font-weight:bold;vertical-align:top;">script_name</td><td style="vertical-align:top;">:</td><td><div></div></td></tr><tr><td style="font-weight:bold;vertical-align:top;">server_name</td><td style="vertical-align:top;">:</td><td><div>PC_LEO</div></td></tr><tr><td style="font-weight:bold;vertical-align:top;">server_port</td><td style="vertical-align:top;">:</td><td><div>8000</div></td></tr><tr><td style="font-weight:bold;vertical-align:top;">server_protocol</td><td style="vertical-align:top;">:</td><td><div>HTTP/1.1</div></td></tr><tr><td style="font-weight:bold;vertical-align:top;">server_software</td><td style="vertical-align:top;">:</td><td><div>Rocket 1.2.6</div></td></tr><tr><td style="font-weight:bold;vertical-align:top;">web2py_path</td><td style="vertical-align:top;">:</td><td><div>C:\\Users\\Leandro\\Documents\\CJR\\DIPRO\\PROJETOS\\G\xeanios\\genios\\ProjetoGenios\\web2py</div></td></tr><tr><td style="font-weight:bold;vertical-align:top;">web2py_version</td><td style="vertical-align:top;">:</td><td><div>2.9.5-stable+timestamp.2014.03.20.22.57.13</div></td></tr><tr><td style="font-weight:bold;vertical-align:top;">wsgi.errors</td><td style="vertical-align:top;">:</td><td><div>&lt;open file &#x27;&lt;stderr&gt;&#x27;, mode &#x27;w&#x27; at 0x004560D0&gt;</div></td></tr><tr><td style="font-weight:bold;vertical-align:top;">wsgi.file_wrapper</td><td style="vertical-align:top;">:</td><td><div>&lt;class wsgiref.util.FileWrapper at 0x02E4A180&gt;</div></td></tr><tr><td style="font-weight:bold;vertical-align:top;">wsgi.input</td><td style="vertical-align:top;">:</td><td><div>&lt;socket._fileobject object at 0x073E4670&gt;</div></td></tr><tr><td style="font-weight:bold;vertical-align:top;">wsgi.multiprocess</td><td style="vertical-align:top;">:</td><td><div>False</div></td></tr><tr><td style="font-weight:bold;vertical-align:top;">wsgi.multithread</td><td style="vertical-align:top;">:</td><td><div>True</div></td></tr><tr><td style="font-weight:bold;vertical-align:top;">wsgi.run_once</td><td style="vertical-align:top;">:</td><td><div>False</div></td></tr><tr><td style="font-weight:bold;vertical-align:top;">wsgi.url_scheme</td><td style="vertical-align:top;">:</td><td><div>http</div></td></tr><tr><td style="font-weight:bold;vertical-align:top;">wsgi.version</td><td style="vertical-align:top;">:</td><td><div><table><tr><td><div>1</div></td></tr><tr><td><div>0</div></td></tr></table></div></td></tr><tr><td style="font-weight:bold;vertical-align:top;">wsgi_errors</td><td style="vertical-align:top;">:</td><td><div>&lt;open file &#x27;&lt;stderr&gt;&#x27;, mode &#x27;w&#x27; at 0x004560D0&gt;</div></td></tr><tr><td style="font-weight:bold;vertical-align:top;">wsgi_file_wrapper</td><td style="vertical-align:top;">:</td><td><div>&lt;class wsgiref.util.FileWrapper at 0x02E4A180&gt;</div></td></tr><tr><td style="font-weight:bold;vertical-align:top;">wsgi_input</td><td style="vertical-align:top;">:</td><td><div>&lt;socket._fileobject object at 0x073E4670&gt;</div></td></tr><tr><td style="font-weight:bold;vertical-align:top;">wsgi_multiprocess</td><td style="vertical-align:top;">:</td><td><div>False</div></td></tr><tr><td style="font-weight:bold;vertical-align:top;">wsgi_multithread</td><td style="vertical-align:top;">:</td><td><div>True</div></td></tr><tr><td style="font-weight:bold;vertical-align:top;">wsgi_run_once</td><td style="vertical-align:top;">:</td><td><div>False</div></td></tr><tr><td style="font-weight:bold;vertical-align:top;">wsgi_url_scheme</td><td style="vertical-align:top;">:</td><td><div>http</div></td></tr><tr><td style="font-weight:bold;vertical-align:top;">wsgi_version</td><td style="vertical-align:top;">:</td><td><div><table><tr><td><div>1</div></td></tr><tr><td><div>0</div></td></tr></table></div></td></tr></table></div></td></tr><tr><td style="font-weight:bold;vertical-align:top;">extension</td><td style="vertical-align:top;">:</td><td><div>html</div></td></tr><tr><td style="font-weight:bold;vertical-align:top;">folder</td><td style="vertical-align:top;">:</td><td><div>C:\\Users\\Leandro\\Documents\\CJR\\DIPRO\\PROJETOS\\G\xeanios\\genios\\ProjetoGenios\\web2py\\applications\\Genios\\</div></td></tr><tr><td style="font-weight:bold;vertical-align:top;">function</td><td style="vertical-align:top;">:</td><td><div>cidades</div></td></tr><tr><td style="font-weight:bold;vertical-align:top;">global_settings</td><td style="vertical-align:top;">:</td><td><div><table><tr><td style="font-weight:bold;vertical-align:top;">app_folders</td><td style="vertical-align:top;">:</td><td><div>set([&#x27;C:\\\\Users\\\\Leandro\\\\Documents\\\\CJR\\\\DIPRO\\\\PROJETOS\\\\G\\xeanios\\\\genios\\\\ProjetoGenios\\\\web2py\\\\applications\\\\admin\\\\&#x27;, &#x27;C:\\\\Users\\\\Leandro\\\\Documents\\\\CJR\\\\DIPRO\\\\PROJETOS\\\\G\\xeanios\\\\genios\\\\ProjetoGenios\\\\web2py\\\\applications\\\\welcome\\\\&#x27;, &#x27;C:\\\\Users\\\\Leandro\\\\Documents\\\\CJR\\\\DIPRO\\\\PROJETOS\\\\G\\xeanios\\\\genios\\\\ProjetoGenios\\\\web2py\\\\applications\\\\Genios\\\\&#x27;])</div></td></tr><tr><td style="font-weight:bold;vertical-align:top;">applications_parent</td><td style="vertical-align:top;">:</td><td><div>C:\\Users\\Leandro\\Documents\\CJR\\DIPRO\\PROJETOS\\G\xeanios\\genios\\ProjetoGenios\\web2py</div></td></tr><tr><td style="font-weight:bold;vertical-align:top;">cmd_args</td><td style="vertical-align:top;">:</td><td><div><table></table></div></td></tr><tr><td style="font-weight:bold;vertical-align:top;">cmd_options</td><td style="vertical-align:top;">:</td><td><div>&lt;Values at 0x2e81e18: {&#x27;verbose&#x27;: False, &#x27;ip&#x27;: &#x27;127.0.0.1&#x27;, &#x27;debuglevel&#x27;: 30, &#x27;with_scheduler&#x27;: False, &#x27;ips&#x27;: [&#x27;172.30.36.253&#x27;, &#x27;192.168.129.236&#x27;, &#x27;fe80::d87f:bcf3:7142:73f4%12&#x27;, &#x27;fe80::2c01:c2a:dede:17a1%13&#x27;, &#x27;fe80::ec1f:2d88:f68:a805%21&#x27;, &#x27;192.168.56.1&#x27;], &#x27;shutdown_timeout&#x27;: 5, &#x27;taskbar&#x27;: False, &#x27;with_coverage&#x27;: False, &#x27;port&#x27;: 8000, &#x27;maxthreads&#x27;: None, &#x27;softcron&#x27;: False, &#x27;server_name&#x27;: &#x27;PC_LEO&#x27;, &#x27;bpython&#x27;: False, &#x27;nogui&#x27;: False, &#x27;pid_filename&#x27;: &#x27;httpserver.pid&#x27;, &#x27;extcron&#x27;: False, &#x27;runcron&#x27;: False, &#x27;run_system_tests&#x27;: False, &#x27;test&#x27;: None, &#x27;folder&#x27;: &#x27;C:\\\\Users\\\\Leandro\\\\Documents\\\\CJR\\\\DIPRO\\\\PROJETOS\\\\G\\xeanios\\\\genios\\\\ProjetoGenios\\\\web2py&#x27;, &#x27;config&#x27;: &#x27;&#x27;, &#x27;minthreads&#x27;: None, &#x27;shell&#x27;: None, &#x27;run&#x27;: &#x27;&#x27;, &#x27;log_filename&#x27;: &#x27;httpserver.log&#x27;, &#x27;profiler_dir&#x27;: None, &#x27;args&#x27;: [&#x27;&#x27;], &#x27;socket_timeout&#x27;: 5, &#x27;ssl_ca_certificate&#x27;: None, &#x27;scheduler&#x27;: None, &#x27;interfaces&#x27;: None, &#x27;ssl_private_key&#x27;: &#x27;&#x27;, &#x27;scheduler_groups&#x27;: None, &#x27;password&#x27;: &#x27;&lt;ask&gt;&#x27;, &#x27;request_queue_size&#x27;: 5, &#x27;ssl_certificate&#x27;: &#x27;&#x27;, &#x27;cronjob&#x27;: False, &#x27;numthreads&#x27;: None, &#x27;quiet&#x27;: False, &#x27;import_models&#x27;: False, &#x27;timeout&#x27;: 10, &#x27;plain&#x27;: False, &#x27;nobanner&#x27;: False}&gt;</div></td></tr><tr><td style="font-weight:bold;vertical-align:top;">db_sessions</td><td style="vertical-align:top;">:</td><td><div>set([])</div></td></tr><tr><td style="font-weight:bold;vertical-align:top;">debugging</td><td style="vertical-align:top;">:</td><td><div>True</div></td></tr><tr><td style="font-weight:bold;vertical-align:top;">gluon_parent</td><td style="vertical-align:top;">:</td><td><div>C:\\Users\\Leandro\\Documents\\CJR\\DIPRO\\PROJETOS\\G\xeanios\\genios\\ProjetoGenios\\web2py</div></td></tr><tr><td style="font-weight:bold;vertical-align:top;">is_jython</td><td style="vertical-align:top;">:</td><td><div>False</div></td></tr><tr><td style="font-weight:bold;vertical-align:top;">is_pypy</td><td style="vertical-align:top;">:</td><td><div>False</div></td></tr><tr><td style="font-weight:bold;vertical-align:top;">is_source</td><td style="vertical-align:top;">:</td><td><div>False</div></td></tr><tr><td style="font-weight:bold;vertical-align:top;">local_hosts</td><td style="vertical-align:top;">:</td><td><div><table><tr><td><div>172.30.36.253</div></td></tr><tr><td><div>::ffff:127.0.0.1</div></td></tr><tr><td><div>::1</div></td></tr><tr><td><div>192.168.129.236</div></td></tr><tr><td><div>fe80::d87f:bcf3:7142:73f4%12</div></td></tr><tr><td><div>PC_LEO</div></td></tr><tr><td><div>fe80::2c01:c2a:dede:17a1%13</div></td></tr><tr><td><div>fe80::ec1f:2d88:f68:a805%21</div></td></tr><tr><td><div>127.0.0.1</div></td></tr><tr><td><div>192.168.56.1</div></td></tr></table></div></td></tr><tr><td style="font-weight:bold;vertical-align:top;">web2py_version</td><td style="vertical-align:top;">:</td><td><div>2.9.5-stable+timestamp.2014.03.20.22.57.13</div></td></tr></table></div></td></tr><tr><td style="font-weight:bold;vertical-align:top;">is_https</td><td style="vertical-align:top;">:</td><td><div>False</div></td></tr><tr><td style="font-weight:bold;vertical-align:top;">is_local</td><td style="vertical-align:top;">:</td><td><div>True</div></td></tr><tr><td style="font-weight:bold;vertical-align:top;">is_restful</td><td style="vertical-align:top;">:</td><td><div>False</div></td></tr><tr><td style="font-weight:bold;vertical-align:top;">now</td><td style="vertical-align:top;">:</td><td><div>datetime.datetime(2014, 6, 6, 14, 25, 57, 927000)</div></td></tr><tr><td style="font-weight:bold;vertical-align:top;">raw_args</td><td style="vertical-align:top;">:</td><td><div></div></td></tr><tr><td style="font-weight:bold;vertical-align:top;">raw_extension</td><td style="vertical-align:top;">:</td><td><div>None</div></td></tr><tr><td style="font-weight:bold;vertical-align:top;">url</td><td style="vertical-align:top;">:</td><td><div>/Genios/administrador/cidades</div></td></tr><tr><td style="font-weight:bold;vertical-align:top;">utcnow</td><td style="vertical-align:top;">:</td><td><div>datetime.datetime(2014, 6, 6, 17, 25, 57, 927000)</div></td></tr><tr><td style="font-weight:bold;vertical-align:top;">uuid</td><td style="vertical-align:top;">:</td><td><div>Genios/127.0.0.1.2014-06-06.14-25-57.1da34d36-3e21-49cc-89dd-c28b5ec18247</div></td></tr><tr><td style="font-weight:bold;vertical-align:top;">wsgi</td><td style="vertical-align:top;">:</td><td><div>&lt;gluon.main.LazyWSGI object at 0x08B5A7F0&gt;</div></td></tr></table></div>'
tRp58
sS'frames'
p59
(lp60
(dp61
S'file'
p62
S'C:\\home\\mdipierro\\make_web2py\\web2py\\gluon\\restricted.py'
p63
sS'dump'
p64
(dp65
sS'lnum'
p66
I220
sS'lines'
p67
(dp68
sS'call'
p69
S'(code="response.write(\'<head>\\\\r\\\\n    \', escape=False)\\nr...oter>\\\\r\\\\n    </div>\\\\r\\\\n</div>\\\\r\\\\n\', escape=False)", environment={\'A\': <class \'gluon.html.A\'>, \'ANY_OF\': <class \'gluon.validators.ANY_OF\'>, \'B\': <class \'gluon.html.B\'>, \'BEAUTIFY\': <class \'gluon.html.BEAUTIFY\'>, \'BODY\': <class \'gluon.html.BODY\'>, \'BR\': <class \'gluon.html.BR\'>, \'BUTTON\': <class \'gluon.html.BUTTON\'>, \'CAT\': <class \'gluon.html.CAT\'>, \'CENTER\': <class \'gluon.html.CENTER\'>, \'CLEANUP\': <class \'gluon.validators.CLEANUP\'>, ...}, layer=\'C:\\\\Users\\\\Leandro\\\\Documents\\\\CJR\\\\DIPRO\\\\PROJETOS\\\\G\\xea...lications\\\\Genios\\\\views\\\\administrador/cidades.html\')'
p70
sS'func'
p71
S'restricted'
p72
sa(dp73
g62
S'C:\\Users\\Leandro\\Documents\\CJR\\DIPRO\\PROJETOS\\G\xeanios\\genios\\ProjetoGenios\\web2py\\applications\\Genios\\views\\administrador\\cidades.html'
p74
sg64
(dp75
sg66
I32
sg67
(dp76
I32
S'for regiao in lista:'
p77
sI33
S"    response.write('\\r\\n    \\r\\n        <div>\\r\\n            ', escape=False)"
p78
sI34
S'    response.write(regiao)'
p79
sI35
S"    response.write('\\r\\n        </div>\\r\\n    \\r\\n    ', escape=False)"
p80
sI36
S'    pass'
p81
sI37
S"response.write('\\r\\n</div>\\r\\n', escape=False)"
p82
sI38
S'response.write(\'\\r\\n        </div>\\r\\n        <footer style="width:960px; height:100px">\\r\\n            <div id="footer-left" class="span2">\\r\\n                \', escape=False)'
p83
sI39
S"response.write(IMG( _src=(URL('static','images/cjr.png'))))"
p84
sI40
S'response.write(\'\\r\\n                Desenvolvido Por:              \\r\\n            </div>\\r\\n            <div id="footer-center" class="span8">\\r\\n                <p>\\r\\n                    Endere\\xc3\\xa7o: XXXXXXXXXXXXX - XXXXXXXXXXXXXX\\r\\n                </p>\\r\\n               <p>\\r\\n                   Telefone: XXXX-XXXX\\r\\n                </p>\\r\\n            </div>\\r\\n            <div id="footer-right" class="span2">\\r\\n                \', escape=False)'
p85
sI41
S"response.write(IMG( _src=(URL('static','images/facebook.png'))))"
p86
sI42
S"response.write('\\r\\n            </div>        \\r\\n        </footer>\\r\\n    </div>\\r\\n</div>\\r\\n', escape=False)"
p87
sI23
S"response.write('\\r\\n', escape=False)"
p88
sI24
S"response.write('\\r\\n\\r\\n    <title>', escape=False)"
p89
sI25
S'response.write("Genios")'
p90
sI26
S"response.write('</title>\\r\\n\\r\\n    ', escape=False)"
p91
sI27
S"response.write('\\r\\n    ', escape=False)"
p92
sI28
S'response.write(\'\\r\\n</head>\\r\\n\\r\\n<div id="body">\\r\\n    <div id="wrap">\\r\\n        <header>\\r\\n            <div class="logo"></div>\\r\\n            \', escape=False)'
p93
sI29
S"response.write(MENU(response.menu, _class='menu_genios'))"
p94
sI30
S'response.write(\'\\r\\n        </header>\\r\\n        <div id="conteudo">\\r\\n            \', escape=False)'
p95
sI31
S"response.write('\\r\\n\\r\\n\\r\\n<div>\\r\\n    ', escape=False)"
p96
ssg69
S'()'
p97
sg71
S'<module>'
p98
sasS'pyver'
p99
S'Python 2.7.6: C:\\Users\\Leandro\\Documents\\CJR\\DIPRO\\PROJETOS\\G\xeanios\\genios\\ProjetoGenios\\web2py\\web2py.exe (prefix: C:\\Python27)'
p100
sS'session'
p101
g57
(S's7\x02\x00\x00<div><table><tr><td style="font-weight:bold;vertical-align:top;">idpai</td><td style="vertical-align:top;">:</td><td><div>1</div></td></tr><tr><td style="font-weight:bold;vertical-align:top;">last_orderby</td><td style="vertical-align:top;">:</td><td><div>None</div></td></tr><tr><td style="font-weight:bold;vertical-align:top;">last_query</td><td style="vertical-align:top;">:</td><td><div>db.pai_x_filho.id&gt;0</div></td></tr><tr><td style="font-weight:bold;vertical-align:top;">op</td><td style="vertical-align:top;">:</td><td><div>4</div></td></tr></table></div>'
tRp102
sS'etype'
p103
S"<type 'exceptions.TypeError'>"
p104
sS'date'
p105
S'Fri Jun 06 14:25:57 2014'
p106
sS'response'
p107
g57
(S's$\x1d\x00\x00<div><table><tr><td style="font-weight:bold;vertical-align:top;">body</td><td style="vertical-align:top;">:</td><td><div>&lt;cStringIO.StringO object at 0x07EC2180&gt;</div></td></tr><tr><td style="font-weight:bold;vertical-align:top;">cookies</td><td style="vertical-align:top;">:</td><td><div><table><tr><td style="font-weight:bold;vertical-align:top;">session_id_genios</td><td style="vertical-align:top;">:</td><td><div>127.0.0.1-0cad6233-22cc-48e9-a2b5-0591ce00c77b<table><tr><td style="font-weight:bold;vertical-align:top;">comment</td><td style="vertical-align:top;">:</td><td><div></div></td></tr><tr><td style="font-weight:bold;vertical-align:top;">domain</td><td style="vertical-align:top;">:</td><td><div></div></td></tr><tr><td style="font-weight:bold;vertical-align:top;">expires</td><td style="vertical-align:top;">:</td><td><div></div></td></tr><tr><td style="font-weight:bold;vertical-align:top;">httponly</td><td style="vertical-align:top;">:</td><td><div></div></td></tr><tr><td style="font-weight:bold;vertical-align:top;">max-age</td><td style="vertical-align:top;">:</td><td><div></div></td></tr><tr><td style="font-weight:bold;vertical-align:top;">path</td><td style="vertical-align:top;">:</td><td><div>/</div></td></tr><tr><td style="font-weight:bold;vertical-align:top;">secure</td><td style="vertical-align:top;">:</td><td><div></div></td></tr><tr><td style="font-weight:bold;vertical-align:top;">version</td><td style="vertical-align:top;">:</td><td><div></div></td></tr></table></div></td></tr></table></div></td></tr><tr><td style="font-weight:bold;vertical-align:top;">delimiters</td><td style="vertical-align:top;">:</td><td><div><table><tr><td><div>{{</div></td></tr><tr><td><div>}}</div></td></tr></table></div></td></tr><tr><td style="font-weight:bold;vertical-align:top;">files</td><td style="vertical-align:top;">:</td><td><div><table><tr><td><div>/Genios/static/js/jquery.js</div></td></tr><tr><td><div>/Genios/static/css/calendar.css</div></td></tr><tr><td><div>/Genios/static/js/calendar.js</div></td></tr><tr><td><div>/Genios/static/js/web2py.js</div></td></tr><tr><td><div>/Genios/static/css/bootstrap-responsive.min.css</div></td></tr><tr><td><div>/Genios/static/css/bootstrap.min.css</div></td></tr><tr><td><div>/Genios/static/css/style.css</div></td></tr></table></div></td></tr><tr><td style="font-weight:bold;vertical-align:top;">flash</td><td style="vertical-align:top;">:</td><td><div></div></td></tr><tr><td style="font-weight:bold;vertical-align:top;">generic_patterns</td><td style="vertical-align:top;">:</td><td><div><table></table></div></td></tr><tr><td style="font-weight:bold;vertical-align:top;">google_analytics_id</td><td style="vertical-align:top;">:</td><td><div>None</div></td></tr><tr><td style="font-weight:bold;vertical-align:top;">headers</td><td style="vertical-align:top;">:</td><td><div><table><tr><td style="font-weight:bold;vertical-align:top;">X-Powered-By</td><td style="vertical-align:top;">:</td><td><div>web2py</div></td></tr></table></div></td></tr><tr><td style="font-weight:bold;vertical-align:top;">menu</td><td style="vertical-align:top;">:</td><td><div><table><tr><td><div><table><tr><td><div>Perfil</div></td></tr><tr><td><div>False</div></td></tr><tr><td><div>/Genios/responsavel/index</div></td></tr><tr><td><div><table></table></div></td></tr></table></div></td></tr></table></div></td></tr><tr><td style="font-weight:bold;vertical-align:top;">meta</td><td style="vertical-align:top;">:</td><td><div><table><tr><td style="font-weight:bold;vertical-align:top;">author</td><td style="vertical-align:top;">:</td><td><div>Your Name &lt;you@example.com&gt;</div></td></tr><tr><td style="font-weight:bold;vertical-align:top;">generator</td><td style="vertical-align:top;">:</td><td><div>Web2py Web Framework</div></td></tr><tr><td style="font-weight:bold;vertical-align:top;">keywords</td><td style="vertical-align:top;">:</td><td><div>web2py, python, framework</div></td></tr></table></div></td></tr><tr><td style="font-weight:bold;vertical-align:top;">models_to_run</td><td style="vertical-align:top;">:</td><td><div><table><tr><td><div>^\\w+\\.py$</div></td></tr><tr><td><div>^administrador/\\w+\\.py$</div></td></tr><tr><td><div>^administrador/cidades/\\w+\\.py$</div></td></tr></table></div></td></tr><tr><td style="font-weight:bold;vertical-align:top;">postprocessing</td><td style="vertical-align:top;">:</td><td><div><table></table></div></td></tr><tr><td style="font-weight:bold;vertical-align:top;">session_client</td><td style="vertical-align:top;">:</td><td><div>127.0.0.1</div></td></tr><tr><td style="font-weight:bold;vertical-align:top;">session_cookie_compression_level</td><td style="vertical-align:top;">:</td><td><div>None</div></td></tr><tr><td style="font-weight:bold;vertical-align:top;">session_cookie_expires</td><td style="vertical-align:top;">:</td><td><div>None</div></td></tr><tr><td style="font-weight:bold;vertical-align:top;">session_cookie_key</td><td style="vertical-align:top;">:</td><td><div>None</div></td></tr><tr><td style="font-weight:bold;vertical-align:top;">session_data_name</td><td style="vertical-align:top;">:</td><td><div>session_data_genios</div></td></tr><tr><td style="font-weight:bold;vertical-align:top;">session_file</td><td style="vertical-align:top;">:</td><td><div>&lt;open file &#x27;C:\\\\Users\\\\Leandro\\\\Documents\\\\CJR\\\\DIPRO\\\\PROJETOS\\\\G\\xeanios\\\\genios\\\\ProjetoGenios\\\\web2py\\\\applications\\\\Genios\\\\sessions\\\\127.0.0.1-0cad6233-22cc-48e9-a2b5-0591ce00c77b&#x27;, mode &#x27;rb+&#x27; at 0x075A8700&gt;</div></td></tr><tr><td style="font-weight:bold;vertical-align:top;">session_filename</td><td style="vertical-align:top;">:</td><td><div>C:\\Users\\Leandro\\Documents\\CJR\\DIPRO\\PROJETOS\\G\xeanios\\genios\\ProjetoGenios\\web2py\\applications\\Genios\\sessions\\127.0.0.1-0cad6233-22cc-48e9-a2b5-0591ce00c77b</div></td></tr><tr><td style="font-weight:bold;vertical-align:top;">session_hash</td><td style="vertical-align:top;">:</td><td><div>9c252ccbbd173d55b6b1478e4871cb07</div></td></tr><tr><td style="font-weight:bold;vertical-align:top;">session_id</td><td style="vertical-align:top;">:</td><td><div>127.0.0.1-0cad6233-22cc-48e9-a2b5-0591ce00c77b</div></td></tr><tr><td style="font-weight:bold;vertical-align:top;">session_id_name</td><td style="vertical-align:top;">:</td><td><div>session_id_genios</div></td></tr><tr><td style="font-weight:bold;vertical-align:top;">session_locked</td><td style="vertical-align:top;">:</td><td><div>True</div></td></tr><tr><td style="font-weight:bold;vertical-align:top;">session_masterapp</td><td style="vertical-align:top;">:</td><td><div>Genios</div></td></tr><tr><td style="font-weight:bold;vertical-align:top;">session_new</td><td style="vertical-align:top;">:</td><td><div>False</div></td></tr><tr><td style="font-weight:bold;vertical-align:top;">session_storage_type</td><td style="vertical-align:top;">:</td><td><div>file</div></td></tr><tr><td style="font-weight:bold;vertical-align:top;">status</td><td style="vertical-align:top;">:</td><td><div>200</div></td></tr><tr><td style="font-weight:bold;vertical-align:top;">subtitle</td><td style="vertical-align:top;">:</td><td><div></div></td></tr><tr><td style="font-weight:bold;vertical-align:top;">title</td><td style="vertical-align:top;">:</td><td><div>Genios</div></td></tr><tr><td style="font-weight:bold;vertical-align:top;">view</td><td style="vertical-align:top;">:</td><td><div>administrador/cidades.html</div></td></tr></table></div>'
tRp108
sS'locals'
p109
(dp110
S'OBJECT'
p111
S"<class 'gluon.html.OBJECT'>"
p112
sS'SQLDB'
p113
S"<class 'gluon.dal.DAL'>"
p114
sg101
S"<Storage {'_formkey[tb_usuario/1]': ['b4ef52dc-6...f5cdee38-6841-42e1-89e1-d87c027bd744'], 'op': 4}>"
p115
sS'LINK'
p116
S"<class 'gluon.html.LINK'>"
p117
sS'BR'
p118
S"<class 'gluon.html.BR'>"
p119
sS'local_import'
p120
S'<function <lambda>>'
p121
sS'OPTGROUP'
p122
S"<class 'gluon.html.OPTGROUP'>"
p123
sS'PRE'
p124
S"<class 'gluon.html.PRE'>"
p125
sS'IS_INT_IN_RANGE'
p126
S"<class 'gluon.validators.IS_INT_IN_RANGE'>"
p127
sS'IS_LOWER'
p128
S"<class 'gluon.validators.IS_LOWER'>"
p129
sS'IS_STRONG'
p130
S"<class 'gluon.validators.IS_STRONG'>"
p131
sS'cache'
p132
S'<gluon.cache.Cache object>'
p133
sS'IS_IN_DB'
p134
S"<class 'gluon.validators.IS_IN_DB'>"
p135
sS'TAG'
p136
S'<gluon.html.__TAG__ object>'
p137
sS'SQLField'
p138
S"<class 'gluon.dal.Field'>"
p139
sS'BODY'
p140
S"<class 'gluon.html.BODY'>"
p141
sS'IS_DATE_IN_RANGE'
p142
S"<class 'gluon.validators.IS_DATE_IN_RANGE'>"
p143
sS'TH'
p144
S"<class 'gluon.html.TH'>"
p145
sS'URL'
p146
S'<function URL>'
p147
sS'__file__'
p148
S"'C:\\\\Users\\\\Leandro\\\\Documents\\\\CJR\\\\DIPRO\\\\PROJETOS\\\\G\\xea...lications\\\\Genios\\\\views\\\\administrador/cidades.html'"
p149
sS'db'
p150
S'<DAL uri="mysql:******@localhost/mydb">'
p151
sS'P'
S"<class 'gluon.html.P'>"
p152
sS'TFOOT'
p153
S"<class 'gluon.html.TFOOT'>"
p154
sS'XHTML'
p155
S"<class 'gluon.html.XHTML'>"
p156
sS'ON'
p157
S'True'
p158
sS'OL'
p159
S"<class 'gluon.html.OL'>"
p160
sS'TEXTAREA'
p161
S"<class 'gluon.html.TEXTAREA'>"
p162
sS'MENU'
p163
S"<class 'gluon.html.MENU'>"
p164
sS'EM'
p165
S"<class 'gluon.html.EM'>"
p166
sS'CODE'
p167
S"<class 'gluon.html.CODE'>"
p168
sS'HTTP'
p169
S"<class 'gluon.http.HTTP'>"
p170
sS'HR'
p171
S"<class 'gluon.html.HR'>"
p172
sS'IS_DATETIME'
p173
S"<class 'gluon.validators.IS_DATETIME'>"
p174
sS'HEAD'
p175
S"<class 'gluon.html.HEAD'>"
p176
sS'LABEL'
p177
S"<class 'gluon.html.LABEL'>"
p178
sS'CLEANUP'
p179
S"<class 'gluon.validators.CLEANUP'>"
p180
sS'SELECT'
p181
S"<class 'gluon.html.SELECT'>"
p182
sS'CENTER'
p183
S"<class 'gluon.html.CENTER'>"
p184
sS'__builtins__'
p185
S"{'ArithmeticError': <type 'exceptions.ArithmeticError'>, 'AssertionError': <type 'exceptions.AssertionError'>, 'AttributeError': <type 'exceptions.AttributeError'>, 'BaseException': <type 'exceptions.BaseException'>, 'BufferError': <type 'exceptions.BufferError'>, 'BytesWarning': <type 'exceptions.BytesWarning'>, 'DeprecationWarning': <type 'exceptions.DeprecationWarning'>, 'EOFError': <type 'exceptions.EOFError'>, 'Ellipsis': Ellipsis, 'EnvironmentError': <type 'exceptions.EnvironmentError'>, ...}"
p186
sS'HTML'
p187
S"<class 'gluon.html.HTML'>"
p188
sS'SQLFORM'
p189
S"<class 'gluon.sqlhtml.SQLFORM'>"
p190
sS'LOAD'
p191
S'<function LOAD>'
p192
sS'redirect'
p193
S'<function redirect>'
p194
sS'FIELDSET'
p195
S"<class 'gluon.html.FIELDSET'>"
p196
sS'IS_EQUAL_TO'
p197
S"<class 'gluon.validators.IS_EQUAL_TO'>"
p198
sS'embed64'
p199
S'<function embed64>'
p200
sS'IS_LIST_OF'
p201
S"<class 'gluon.validators.IS_LIST_OF'>"
p202
sS'__name__'
p203
S"'__restricted__'"
p204
sS'EMBED'
p205
S"<class 'gluon.html.EMBED'>"
p206
sS'FORM'
p207
S"<class 'gluon.html.FORM'>"
p208
sS'H2'
p209
S"<class 'gluon.html.H2'>"
p210
sS'H3'
p211
S"<class 'gluon.html.H3'>"
p212
sS'BUTTON'
p213
S"<class 'gluon.html.BUTTON'>"
p214
sS'H1'
p215
S"<class 'gluon.html.H1'>"
p216
sS'H6'
p217
S"<class 'gluon.html.H6'>"
p218
sS'H4'
p219
S"<class 'gluon.html.H4'>"
p220
sS'H5'
p221
S"<class 'gluon.html.H5'>"
p222
sS'UL'
p223
S"<class 'gluon.html.UL'>"
p224
sS'IS_UPPER'
p225
S"<class 'gluon.validators.IS_UPPER'>"
p226
sS'xmlescape'
p227
S'<function xmlescape>'
p228
sS'IS_TIME'
p229
S"<class 'gluon.validators.IS_TIME'>"
p230
sS'OPTION'
p231
S"<class 'gluon.html.OPTION'>"
p232
sS'TITLE'
p233
S"<class 'gluon.html.TITLE'>"
p234
sS'CRYPT'
p235
S"<class 'gluon.validators.CRYPT'>"
p236
sS'IS_EMPTY_OR'
p237
S"<class 'gluon.validators.IS_EMPTY_OR'>"
p238
sS'MARKMIN'
p239
S"<class 'gluon.html.MARKMIN'>"
p240
sS'INPUT'
p241
S"<class 'gluon.html.INPUT'>"
p242
sS'STRONG'
p243
S"<class 'gluon.html.STRONG'>"
p244
sS'COL'
p245
S"<class 'gluon.html.COL'>"
p246
sS'SCRIPT'
p247
S"<class 'gluon.html.SCRIPT'>"
p248
sS'TABLE'
p249
S"<class 'gluon.html.TABLE'>"
p250
sS'IS_IPV4'
p251
S"<class 'gluon.validators.IS_IPV4'>"
p252
sS'IS_LENGTH'
p253
S"<class 'gluon.validators.IS_LENGTH'>"
p254
sS'IS_IPV6'
p255
S"<class 'gluon.validators.IS_IPV6'>"
p256
sS'XML'
p257
S"<class 'gluon.html.XML'>"
p258
sS'B'
S"<class 'gluon.html.B'>"
p259
sS'form'
p260
S'<gluon.sqlhtml.SQLFORM object>'
p261
sS'SQLTABLE'
p262
S"<class 'gluon.sqlhtml.SQLTABLE'>"
p263
sS'IS_MATCH'
p264
S"<class 'gluon.validators.IS_MATCH'>"
p265
sS'IS_ALPHANUMERIC'
p266
S"<class 'gluon.validators.IS_ALPHANUMERIC'>"
p267
sS'lista'
p268
S'<Set tb_cidade.id, tb_cidade.fk_id_estado, tb_cidade.nome, tb_cidade.ativo>'
p269
sS'SPAN'
p270
S"<class 'gluon.html.SPAN'>"
p271
sS'IS_JSON'
p272
S"<class 'gluon.validators.IS_JSON'>"
p273
sS'IS_IPADDRESS'
p274
S"<class 'gluon.validators.IS_IPADDRESS'>"
p275
sS'IS_SLUG'
p276
S"<class 'gluon.validators.IS_SLUG'>"
p277
sg48
S'"\\ndb = DAL(\'mysql://root:Ca_784595@localhost/mydb...      Field(\'ativo\',\'boolean\')\\n                )\\n"'
p278
sS'BEAUTIFY'
p279
S"<class 'gluon.html.BEAUTIFY'>"
p280
sS'META'
p281
S"<class 'gluon.html.META'>"
p282
sS'IS_DATE'
p283
S"<class 'gluon.validators.IS_DATE'>"
p284
sS'IS_EMAIL'
p285
S"<class 'gluon.validators.IS_EMAIL'>"
p286
sS'IS_NOT_EMPTY'
p287
S"<class 'gluon.validators.IS_NOT_EMPTY'>"
p288
sS'IS_FLOAT_IN_RANGE'
p289
S"<class 'gluon.validators.IS_FLOAT_IN_RANGE'>"
p290
sS'TBODY'
p291
S"<class 'gluon.html.TBODY'>"
p292
sS'CAT'
p293
S"<class 'gluon.html.CAT'>"
p294
sS'Field'
p295
S"<class 'gluon.dal.Field'>"
p296
sS'IS_LIST_OF_EMAILS'
p297
S"<class 'gluon.validators.IS_LIST_OF_EMAILS'>"
p298
sS'DIV'
p299
S"<class 'gluon.html.DIV'>"
p300
sS'LEGEND'
p301
S"<class 'gluon.html.LEGEND'>"
p302
sS'IMG'
p303
S"<class 'gluon.html.IMG'>"
p304
sS'COLGROUP'
p305
S"<class 'gluon.html.COLGROUP'>"
p306
sS'DAL'
p307
S"<class 'gluon.dal.DAL'>"
p308
sS'TT'
p309
S"<class 'gluon.html.TT'>"
p310
sS'TR'
p311
S"<class 'gluon.html.TR'>"
p312
sS'LI'
p313
S"<class 'gluon.html.LI'>"
p314
sS'IFRAME'
p315
S"<class 'gluon.html.IFRAME'>"
p316
sS'TD'
p317
S"<class 'gluon.html.TD'>"
p318
sS'IS_URL'
p319
S"<class 'gluon.validators.IS_URL'>"
p320
sS'A'
S"<class 'gluon.html.A'>"
p321
sS'STYLE'
p322
S"<class 'gluon.html.STYLE'>"
p323
sS'IS_DATETIME_IN_RANGE'
p324
S"<class 'gluon.validators.IS_DATETIME_IN_RANGE'>"
p325
sS'IS_IMAGE'
p326
S"<class 'gluon.validators.IS_IMAGE'>"
p327
sS'I'
S"<class 'gluon.html.I'>"
p328
sS'IS_NOT_IN_DB'
p329
S"<class 'gluon.validators.IS_NOT_IN_DB'>"
p330
sg107
S"<Storage {'body': <cStringIO.StringO object at 0...073E42B0>, 'view': 'administrador/cidades.html'}>"
p331
sS'THEAD'
p332
S"<class 'gluon.html.THEAD'>"
p333
sS'ANY_OF'
p334
S"<class 'gluon.validators.ANY_OF'>"
p335
sS'IS_NULL_OR'
p336
S"<class 'gluon.validators.IS_EMPTY_OR'>"
p337
sg56
S"<Storage {'_vars': None, 'function': 'cidades', ...\\ProjetoGenios\\\\web2py\\\\applications\\\\Genios\\\\'}>"
p338
sS'IS_EXPR'
p339
S"<class 'gluon.validators.IS_EXPR'>"
p340
sS'T'
S'<gluon.languages.translator object>'
p341
sS'IS_IN_SET'
p342
S"<class 'gluon.validators.IS_IN_SET'>"
p343
sS'IS_UPLOAD_FILENAME'
p344
S"<class 'gluon.validators.IS_UPLOAD_FILENAME'>"
p345
sS'IS_DECIMAL_IN_RANGE'
p346
S"<class 'gluon.validators.IS_DECIMAL_IN_RANGE'>"
p347
sssS'traceback'
p348
S'Traceback (most recent call last):\n  File "/home/mdipierro/make_web2py/web2py/gluon/restricted.py", line 220, in restricted\n  File "C:\\Users\\Leandro\\Documents\\CJR\\DIPRO\\PROJETOS\\G\xeanios\\genios\\ProjetoGenios\\web2py\\applications\\Genios\\views\\administrador/cidades.html", line 32, in <module>\nTypeError: \'Set\' object is not iterable\n'
p349
s.