(dp1
S'output'
p2
S'<class \'gluon.contrib.pymysql.err.InternalError\'> (1054, u"Unknown column \'filho.colegio\' in \'field list\'")'
p3
sS'layer'
p4
S'C:\\Users\\Leandro\\Documents\\CJR\\DIPRO\\PROJETOS\\G\xeanios\\genios\\ProjetoGenios\\web2py\\applications\\Genios\\controllers/responsavel.py'
p5
sS'code'
p6
S'# coding: utf8\n# try something like\n# ENUMERATIONS\nESCREVE_FILHO = 0\nALTERA_FILHO  = 1\nDELETA_FILHO  = 2\nALTERA_RESPONSAVEL = 3\nNULLOP = 4\n\n\n#Controller da pagina inicial do Responsavel\ndef index():\n    db.pai_x_filho.fk_filho.writable= False\n    form2 = SQLFORM(db.pai_x_filho,fields=["fk_pai"],showid=False)\n\n    if(form2.validate()):\n        session.idpai=form2.vars.fk_pai\n        session.op = NULLOP\n        redirect(URL(\'responsavel\',\'alterar\'))\n    else:\n        session.idpai= 0\n    return dict(form=form2, session=session.idpai)\n\n\n#Controller da pagina de perfil do responsavel\ndef alterar():\n    # Session com a info do pai foi setada?\n    if not session.idpai : # Falta uma condicao aqui! if not session.op\n         redirect(URL(\'responsavel\',\'index\'))\n\n    #Pegando form do pai\n    formpai = SQLFORM(db.tb_usuario,session.idpai,showid=False,fields=[\'nome\',\'email\',\'senha\'],formstyle="divs")\n\n    #Processa as alteracoes\n    if session.op == ALTERA_FILHO and formpai.process().accepted:\n        response.flash = "Alteracao Concluida!"\n\n\n    #SQL query INNER JOIN\n    filhosSet = db((session.idpai==db.pai_x_filho.fk_pai)& (db.filho.id==db.pai_x_filho.fk_filho))\n\n    #Get numero de registros\n    numFilhos = filhosSet.count()\n\n    #Iniciam as Listas\n    forms = list()\n    fotos = list()\n\n    # i = 0\n    i = 0\n\n    #loop criando os formul\xc3\xa1rios referentes aos filhos\n    for filhoObj in filhosSet.select():\n        #Seta o formulario de acordo com a necessidade\n        fotos.append(filhoObj.filho.foto)\n        forms.append(SQLFORM(db.filho, filhoObj.filho, fields = [\'foto\',\'nome\'], showid=False,formstyle="divs"))\n        #Incrementa o i\n        i += 1\n    #fimfor\n\n    #Get numFilhos e inicilaiza o i\n    numFilhos = i\n    i = 0\n\n    #for de processamento dos forms\n    for i in range(0,numFilhos):\n        if forms[i].process().accepted:\n            response.flash = "Cadastro Filho Alterado!"\n    #fim for\n\n    return dict(formpai=formpai,forms=forms,fotos=fotos)\n\ndef incluifilho():\n    # Testa se a session foi setada\n    if not session.idpai:\n        redirect(URL("responsavel"))\n\n    #Prepara para inserir no banco e seta a FK\n    formfilho = SQLFORM(db.filho,fields=[\'nome\',\'foto\'], showid=False, formstyle="divs")\n    formfilho.vars.fk_pai = session.idpai\n\n\n    formrel = SQLFORM(db.pai_x_filho)\n\n    #processa o for\n    if formfilho.process().accepted:\n        #Prepara para inserir o registro de relacionamento\n        response.flash = "Filho Vinculado"\n        formrel.vars.fk_pai = session.idpai\n        formrel.vars.fk_filho = formfilho.vars.id\n\n        if formrel.process().accepted:\n            response.flash = "Filho Vinculado, Form rel criado"\n        else:\n            response.flash =  formrel.vars.fk_filho\n    #fim for\n    return dict(pai=session.idpai, form = formfilho, formrel = formrel)\n\n\ndef download():\n    return response.render()\n\nresponse._vars=response._caller(alterar)\n'
p7
sS'snapshot'
p8
(dp9
sS'traceback'
p10
S'Traceback (most recent call last):\n  File "/home/mdipierro/make_web2py/web2py/gluon/restricted.py", line 220, in restricted\n  File "C:\\Users\\Leandro\\Documents\\CJR\\DIPRO\\PROJETOS\\G\xeanios\\genios\\ProjetoGenios\\web2py\\applications\\Genios\\controllers/responsavel.py", line 103, in <module>\n  File "/home/mdipierro/make_web2py/web2py/gluon/globals.py", line 385, in <lambda>\n  File "C:\\Users\\Leandro\\Documents\\CJR\\DIPRO\\PROJETOS\\G\xeanios\\genios\\ProjetoGenios\\web2py\\applications\\Genios\\controllers/responsavel.py", line 53, in alterar\n    for filhoObj in filhosSet.select():\n  File "/home/mdipierro/make_web2py/web2py/gluon/dal.py", line 10525, in select\n  File "/home/mdipierro/make_web2py/web2py/gluon/dal.py", line 1882, in select\n  File "/home/mdipierro/make_web2py/web2py/gluon/dal.py", line 1847, in _select_aux\n  File "/home/mdipierro/make_web2py/web2py/gluon/dal.py", line 1969, in execute\n  File "/home/mdipierro/make_web2py/web2py/gluon/dal.py", line 1963, in log_execute\n  File "/home/mdipierro/make_web2py/web2py/gluon/contrib/pymysql/cursors.py", line 117, in execute\n  File "/home/mdipierro/make_web2py/web2py/gluon/contrib/pymysql/connections.py", line 202, in defaulterrorhandler\nInternalError: (1054, u"Unknown column \'filho.colegio\' in \'field list\'")\n'
p11
s.