(dp1
S'output'
p2
S"<type 'exceptions.AttributeError'> 'Table' object has no attribute 'id_usuario'"
p3
sS'layer'
p4
S'C:\\Users\\Leandro\\Documents\\CJR\\DIPRO\\PROJETOS\\G\xeanios\\genios\\ProjetoGenios\\web2py\\applications\\genios\\controllers/responsavel.py'
p5
sS'code'
p6
S'# coding: utf8\n# try something like\n# ENUMERATIONS\nESCREVE_FILHO = 0\nALTERA_FILHO  = 1\nDELETA_FILHO  = 2\nALTERA_RESPONSAVEL = 3\nNULLOP = 4\n\n\n#Controller da pagina inicial do Responsavel\ndef index():\n    if not session.id_user:\n        redirect(URL("default","index"))\n        response.flash = "Sess\xc3\xa3o Expirada, Logue-se novamente!"\n        \n        \n    db.tb_pai_x_filho.fk_filho.writable= False\n    form2 = SQLFORM(db.tb_pai_x_filho,fields=["fk_pai"],showid=False)\n\n    session.idpai = session.id_user\n\n    #if(form2.validate()):\n    #    session.idpai=form2.vars.fk_pai\n    #    session.op = NULLOP\n    #    redirect(URL(\'responsavel\',\'alterar\'))\n    #else:\n    #    session.idpai= 0\n    #return dict(form=form2, session=session.idpai)\n\n    response.flash= session.id_user\n    return dict()\n\n\n#Controller da pagina de perfil do responsavel\ndef alterar():\n    # Session com a info do pai foi setada?\n    if not session.id_user : # Falta uma condicao aqui! if not session.op\n         redirect(URL(\'responsavel\',\'index\'))\n\n\n    #Dando um Join tb_usuario e Tb_endereco\n    #enderecopai = db(session.idpai == db.tb_endereco.fk_id_usuario).select()\n\n    #IS FORMPAI SET?\n    try:\n        formpai\n        formEndereco\n    except NameError:\n        formpai = None\n        forEndereco = None\n\n    if formpai is None or formEndereco is None:\n\n        #Pegando form do pai\n        formpai = SQLFORM(db.tb_usuario,session.id_user,showid=False,\n                          fields=[\'nome\',\'email\',\'senha\'],\n                          submit_button="Alterar",\n                          formstyle="divs")\n\n        #Pegando Registro do Endereco do pai\n        endereco = db.tb_endereco(db.tb_endereco.fk_id_usuario == session.id_user)\n\n        #Criando SQLFORM para alterar o Endereco\n        formEndereco = SQLFORM(db.tb_endereco,endereco,\n                               fields=[\'fk_id_cidade\',\'endereco\',\'complemento\',\'cep\'],\n                               submit_button="Alterar",\n                               formstyle="divs",\n                               showid=False)\n\n        fotopai = SQLFORM.factory(Field(\'foto\',\'upload\',default=formpai.vars.foto))\n\n        #Processa as alteracoes\n        if session.op == ALTERA_FILHO and formpai.process().accepted:\n            response.flash = "Alteracao Concluida!"\n\n\n        #SQL query INNER JOIN\n        filhosSet = db((session.id_user==db.tb_pai_x_filho.fk_pai)& (db.tb_filho.id==db.tb_pai_x_filho.fk_filho)&(db.tb_filho.ativo == True))\n\n        #Get numero de registros\n        numFilhos = filhosSet.count()\n\n        #Iniciam as Listas\n        forms = list()\n        fotos = list()\n\n        # i = 0\n        i = 0\n\n        #loop criando os formul\xc3\xa1rios referentes aos filhos\n        for filhoObj in filhosSet.select():\n            #Seta o formulario de acordo com a necessidade\n            fotos.append(filhoObj.tb_filho.foto)\n            forms.append(SQLFORM(db.tb_filho, filhoObj.tb_filho,\n                                 fields = [\'foto\',\'nome\',\'colegio\',\'ano\',\'ativo\'],\n                                 submit_button="Alterar",\n                                 showid=False,\n                                 formstyle="divs"))\n            #Incrementa o i\n            i += 1\n        #fimfor\n\n    if formpai.process().accepted:\n        response.flash = "Cadastro Pai Alterado" ;\n\n    if formEndereco.process().accepted:\n        response.flash = "Endere\xc3\xa7o Alterado "\n\n    #Get numFilhos e inicilaiza o i\n    numFilhos = i\n    i = 0\n\n    #for de processamento dos forms\n    for i in range(0,numFilhos):\n        if forms[i].process().accepted:\n            response.flash = "Cadastro Filho Alterado!"\n    #fim for\n    \n    response.flash = session.id_user\n\n    return dict(formpai=formpai,formEndereco = formEndereco,fotopai=fotopai,forms=forms,fotos=fotos)\n\ndef incluifilho():\n    # Testa se a session foi setada\n    if not session.id_user:\n        redirect(URL("default","index"))\n        response.flash = "Sess\xc3\xa3o Expirada, Logue-se novamente!"\n\n        \n    #Prepara para inserir no banco e seta a FK\n    formfilho = SQLFORM.factory(db.tb_filho,db.tb_pai_x_filho,\n                                fields=[\'nome\',\'colegio\',\'foto\'],\n                                showid=False,\n                                formstyle="divs")\n\n    formfilho.vars.fk_pai = session.idpai\n    formfilho.vars.ativo = True\n\n    formrel = SQLFORM(db.tb_pai_x_filho)\n\n    #processa o for\n    if formfilho.process().accepted:\n        #Prepara para inserir o registro de relacionamento\n        id_filho = db.tb_filho.insert(**db.tb_filho._filter_fields(formfilho.vars))\n        response.flash = "Filho Vinculado"\n\n        #Prepopula o formulario\n        formfilho.vars.fk_pai = session.id_user\n        formfilho.vars.fk_filho = id_filho\n\n\n        #Insere no Banco\n        db.tb_pai_x_filho.insert(**db.tb_pai_x_filho._filter_fields(formfilho.vars))\n\n    #fim for\n\n\n    return dict(pai=session.id_user, form = formfilho, formrel = formrel)\n\n\ndef download():\n    return response.render()\n\ndef marcaraulas():\n    rows = db(db.tb_usuario.id_usuario == db.ta_usuario_x_materia.id_usuario and db.tb_materia.id_materia == db.ta_usuario_x_materia.id_materia).select()\n    \n    table = SQLTABLE(rows)\n    \n    return dict(table=table)\n\nresponse._vars=response._caller(marcaraulas)\n'
p7
sS'snapshot'
p8
(dp9
S'exception'
p10
(dp11
S'__hash__'
p12
S"<method-wrapper '__hash__' of exceptions.AttributeError object>"
p13
sS'__setattr__'
p14
S"<method-wrapper '__setattr__' of exceptions.AttributeError object>"
p15
sS'__reduce_ex__'
p16
S'<built-in method __reduce_ex__ of exceptions.AttributeError object>'
p17
sS'__getslice__'
p18
S"<method-wrapper '__getslice__' of exceptions.AttributeError object>"
p19
sS'__getitem__'
p20
S"<method-wrapper '__getitem__' of exceptions.AttributeError object>"
p21
sS'__setstate__'
p22
S'<built-in method __setstate__ of exceptions.AttributeError object>'
p23
sS'__reduce__'
p24
S'<built-in method __reduce__ of exceptions.AttributeError object>'
p25
sS'__str__'
p26
S"<method-wrapper '__str__' of exceptions.AttributeError object>"
p27
sS'__format__'
p28
S'<built-in method __format__ of exceptions.AttributeError object>'
p29
sS'__getattribute__'
p30
S"<method-wrapper '__getattribute__' of exceptions.AttributeError object>"
p31
sS'__class__'
p32
S"<type 'exceptions.AttributeError'>"
p33
sS'__unicode__'
p34
S'<built-in method __unicode__ of exceptions.AttributeError object>'
p35
sS'__delattr__'
p36
S"<method-wrapper '__delattr__' of exceptions.AttributeError object>"
p37
sS'__subclasshook__'
p38
S'<built-in method __subclasshook__ of type object>'
p39
sS'__repr__'
p40
S"<method-wrapper '__repr__' of exceptions.AttributeError object>"
p41
sS'args'
p42
S'("\'Table\' object has no attribute \'id_usuario\'",)'
p43
sS'__dict__'
p44
S'{}'
p45
sS'__sizeof__'
p46
S'<built-in method __sizeof__ of exceptions.AttributeError object>'
p47
sS'__doc__'
p48
S"'Attribute not found.'"
p49
sS'__init__'
p50
S"<method-wrapper '__init__' of exceptions.AttributeError object>"
p51
sS'__new__'
p52
S'<built-in method __new__ of type object>'
p53
ssS'evalue'
p54
S"'Table' object has no attribute 'id_usuario'"
p55
sS'request'
p56
cgluon.html
XML_unpickle
p57
(S's\xb4`\x00\x00<div><table><tr><td style="font-weight:bold;vertical-align:top;">ajax</td><td style="vertical-align:top;">:</td><td><div>False</div></td></tr><tr><td style="font-weight:bold;vertical-align:top;">application</td><td style="vertical-align:top;">:</td><td><div>genios</div></td></tr><tr><td style="font-weight:bold;vertical-align:top;">args</td><td style="vertical-align:top;">:</td><td><div><table></table></div></td></tr><tr><td style="font-weight:bold;vertical-align:top;">cid</td><td style="vertical-align:top;">:</td><td><div>None</div></td></tr><tr><td style="font-weight:bold;vertical-align:top;">client</td><td style="vertical-align:top;">:</td><td><div>127.0.0.1</div></td></tr><tr><td style="font-weight:bold;vertical-align:top;">controller</td><td style="vertical-align:top;">:</td><td><div>responsavel</div></td></tr><tr><td style="font-weight:bold;vertical-align:top;">cookies</td><td style="vertical-align:top;">:</td><td><div><table><tr><td style="font-weight:bold;vertical-align:top;">session_id_admin</td><td style="vertical-align:top;">:</td><td><div>127.0.0.1-4a323fa7-1d11-49fd-94f0-74a42164c43b<table><tr><td style="font-weight:bold;vertical-align:top;">comment</td><td style="vertical-align:top;">:</td><td><div></div></td></tr><tr><td style="font-weight:bold;vertical-align:top;">domain</td><td style="vertical-align:top;">:</td><td><div></div></td></tr><tr><td style="font-weight:bold;vertical-align:top;">expires</td><td style="vertical-align:top;">:</td><td><div></div></td></tr><tr><td style="font-weight:bold;vertical-align:top;">httponly</td><td style="vertical-align:top;">:</td><td><div></div></td></tr><tr><td style="font-weight:bold;vertical-align:top;">max-age</td><td style="vertical-align:top;">:</td><td><div></div></td></tr><tr><td style="font-weight:bold;vertical-align:top;">path</td><td style="vertical-align:top;">:</td><td><div></div></td></tr><tr><td style="font-weight:bold;vertical-align:top;">secure</td><td style="vertical-align:top;">:</td><td><div></div></td></tr><tr><td style="font-weight:bold;vertical-align:top;">version</td><td style="vertical-align:top;">:</td><td><div></div></td></tr></table></div></td></tr><tr><td style="font-weight:bold;vertical-align:top;">session_id_genios</td><td style="vertical-align:top;">:</td><td><div>127.0.0.1-6dcd85a1-cbb0-4389-9b4e-40be5641ff47<table><tr><td style="font-weight:bold;vertical-align:top;">comment</td><td style="vertical-align:top;">:</td><td><div></div></td></tr><tr><td style="font-weight:bold;vertical-align:top;">domain</td><td style="vertical-align:top;">:</td><td><div></div></td></tr><tr><td style="font-weight:bold;vertical-align:top;">expires</td><td style="vertical-align:top;">:</td><td><div></div></td></tr><tr><td style="font-weight:bold;vertical-align:top;">httponly</td><td style="vertical-align:top;">:</td><td><div></div></td></tr><tr><td style="font-weight:bold;vertical-align:top;">max-age</td><td style="vertical-align:top;">:</td><td><div></div></td></tr><tr><td style="font-weight:bold;vertical-align:top;">path</td><td style="vertical-align:top;">:</td><td><div></div></td></tr><tr><td style="font-weight:bold;vertical-align:top;">secure</td><td style="vertical-align:top;">:</td><td><div></div></td></tr><tr><td style="font-weight:bold;vertical-align:top;">version</td><td style="vertical-align:top;">:</td><td><div></div></td></tr></table></div></td></tr><tr><td style="font-weight:bold;vertical-align:top;">session_id_welcome</td><td style="vertical-align:top;">:</td><td><div>127.0.0.1-cea98905-a10f-491b-90eb-5c73580a2a94<table><tr><td style="font-weight:bold;vertical-align:top;">comment</td><td style="vertical-align:top;">:</td><td><div></div></td></tr><tr><td style="font-weight:bold;vertical-align:top;">domain</td><td style="vertical-align:top;">:</td><td><div></div></td></tr><tr><td style="font-weight:bold;vertical-align:top;">expires</td><td style="vertical-align:top;">:</td><td><div></div></td></tr><tr><td style="font-weight:bold;vertical-align:top;">httponly</td><td style="vertical-align:top;">:</td><td><div></div></td></tr><tr><td style="font-weight:bold;vertical-align:top;">max-age</td><td style="vertical-align:top;">:</td><td><div></div></td></tr><tr><td style="font-weight:bold;vertical-align:top;">path</td><td style="vertical-align:top;">:</td><td><div></div></td></tr><tr><td style="font-weight:bold;vertical-align:top;">secure</td><td style="vertical-align:top;">:</td><td><div></div></td></tr><tr><td style="font-weight:bold;vertical-align:top;">version</td><td style="vertical-align:top;">:</td><td><div></div></td></tr></table></div></td></tr></table></div></td></tr><tr><td style="font-weight:bold;vertical-align:top;">env</td><td style="vertical-align:top;">:</td><td><div><table><tr><td style="font-weight:bold;vertical-align:top;">HTTP_ACCEPT</td><td style="vertical-align:top;">:</td><td><div>text/html,application/xhtml+xml,application/xml;q=0.9,image/webp,*/*;q=0.8</div></td></tr><tr><td style="font-weight:bold;vertical-align:top;">HTTP_ACCEPT_ENCODING</td><td style="vertical-align:top;">:</td><td><div>gzip,deflate,sdch</div></td></tr><tr><td style="font-weight:bold;vertical-align:top;">HTTP_ACCEPT_LANGUAGE</td><td style="vertical-align:top;">:</td><td><div>en-US,en;q=0.8,pt;q=0.6</div></td></tr><tr><td style="font-weight:bold;vertical-align:top;">HTTP_CONNECTION</td><td style="vertical-align:top;">:</td><td><div>keep-alive</div></td></tr><tr><td style="font-weight:bold;vertical-align:top;">HTTP_COOKIE</td><td style="vertical-align:top;">:</td><td><div>session_id_welcome=127.0.0.1-cea98905-a10f-491b-90eb-5c73580a2a94; session_id_admin=127.0.0.1-4a323fa7-1d11-49fd-94f0-74a42164c43b; session_id_genios=127.0.0.1-6dcd85a1-cbb0-4389-9b4e-40be5641ff47</div></td></tr><tr><td style="font-weight:bold;vertical-align:top;">HTTP_HOST</td><td style="vertical-align:top;">:</td><td><div>127.0.0.1:8000</div></td></tr><tr><td style="font-weight:bold;vertical-align:top;">HTTP_REFERER</td><td style="vertical-align:top;">:</td><td><div>http://127.0.0.1:8000/genios/responsavel/alterar</div></td></tr><tr><td style="font-weight:bold;vertical-align:top;">HTTP_USER_AGENT</td><td style="vertical-align:top;">:</td><td><div>Mozilla/5.0 (Windows NT 6.2; WOW64) AppleWebKit/537.36 (KHTML, like Gecko) Chrome/35.0.1916.114 Safari/537.36</div></td></tr><tr><td style="font-weight:bold;vertical-align:top;">PATH_INFO</td><td style="vertical-align:top;">:</td><td><div>/genios/responsavel/marcaraulas</div></td></tr><tr><td style="font-weight:bold;vertical-align:top;">QUERY_STRING</td><td style="vertical-align:top;">:</td><td><div></div></td></tr><tr><td style="font-weight:bold;vertical-align:top;">REMOTE_ADDR</td><td style="vertical-align:top;">:</td><td><div>127.0.0.1</div></td></tr><tr><td style="font-weight:bold;vertical-align:top;">REMOTE_PORT</td><td style="vertical-align:top;">:</td><td><div>57215</div></td></tr><tr><td style="font-weight:bold;vertical-align:top;">REQUEST_METHOD</td><td style="vertical-align:top;">:</td><td><div>GET</div></td></tr><tr><td style="font-weight:bold;vertical-align:top;">SCRIPT_NAME</td><td style="vertical-align:top;">:</td><td><div></div></td></tr><tr><td style="font-weight:bold;vertical-align:top;">SERVER_NAME</td><td style="vertical-align:top;">:</td><td><div>PC_LEO</div></td></tr><tr><td style="font-weight:bold;vertical-align:top;">SERVER_PORT</td><td style="vertical-align:top;">:</td><td><div>8000</div></td></tr><tr><td style="font-weight:bold;vertical-align:top;">SERVER_PROTOCOL</td><td style="vertical-align:top;">:</td><td><div>HTTP/1.1</div></td></tr><tr><td style="font-weight:bold;vertical-align:top;">SERVER_SOFTWARE</td><td style="vertical-align:top;">:</td><td><div>Rocket 1.2.6</div></td></tr><tr><td style="font-weight:bold;vertical-align:top;">app_folders</td><td style="vertical-align:top;">:</td><td><div>set([&#x27;C:\\\\Users\\\\Leandro\\\\Documents\\\\CJR\\\\DIPRO\\\\PROJETOS\\\\G\\xeanios\\\\genios\\\\ProjetoGenios\\\\web2py\\\\applications\\\\admin\\\\&#x27;, &#x27;C:\\\\Users\\\\Leandro\\\\Documents\\\\CJR\\\\DIPRO\\\\PROJETOS\\\\G\\xeanios\\\\genios\\\\ProjetoGenios\\\\web2py\\\\applications\\\\welcome\\\\&#x27;, &#x27;C:\\\\Users\\\\Leandro\\\\Documents\\\\CJR\\\\DIPRO\\\\PROJETOS\\\\G\\xeanios\\\\genios\\\\ProjetoGenios\\\\web2py\\\\applications\\\\Genios\\\\&#x27;, &#x27;C:\\\\Users\\\\Leandro\\\\Documents\\\\CJR\\\\DIPRO\\\\PROJETOS\\\\G\\xeanios\\\\genios\\\\ProjetoGenios\\\\web2py\\\\applications\\\\genios\\\\&#x27;])</div></td></tr><tr><td style="font-weight:bold;vertical-align:top;">applications_parent</td><td style="vertical-align:top;">:</td><td><div>C:\\Users\\Leandro\\Documents\\CJR\\DIPRO\\PROJETOS\\G\xeanios\\genios\\ProjetoGenios\\web2py</div></td></tr><tr><td style="font-weight:bold;vertical-align:top;">cmd_args</td><td style="vertical-align:top;">:</td><td><div><table></table></div></td></tr><tr><td style="font-weight:bold;vertical-align:top;">cmd_options</td><td style="vertical-align:top;">:</td><td><div>&lt;Values at 0x2f76e18: {&#x27;verbose&#x27;: False, &#x27;ip&#x27;: &#x27;127.0.0.1&#x27;, &#x27;debuglevel&#x27;: 30, &#x27;with_scheduler&#x27;: False, &#x27;ips&#x27;: [&#x27;fe80::2c01:c2a:dede:17a1%13&#x27;, &#x27;fe80::ec1f:2d88:f68:a805%21&#x27;, &#x27;172.30.36.223&#x27;, &#x27;192.168.56.1&#x27;], &#x27;shutdown_timeout&#x27;: 5, &#x27;taskbar&#x27;: False, &#x27;with_coverage&#x27;: False, &#x27;port&#x27;: 8000, &#x27;maxthreads&#x27;: None, &#x27;softcron&#x27;: False, &#x27;server_name&#x27;: &#x27;PC_LEO&#x27;, &#x27;bpython&#x27;: False, &#x27;nogui&#x27;: False, &#x27;pid_filename&#x27;: &#x27;httpserver.pid&#x27;, &#x27;extcron&#x27;: False, &#x27;runcron&#x27;: False, &#x27;run_system_tests&#x27;: False, &#x27;test&#x27;: None, &#x27;folder&#x27;: &#x27;C:\\\\Users\\\\Leandro\\\\Documents\\\\CJR\\\\DIPRO\\\\PROJETOS\\\\G\\xeanios\\\\genios\\\\ProjetoGenios\\\\web2py&#x27;, &#x27;config&#x27;: &#x27;&#x27;, &#x27;minthreads&#x27;: None, &#x27;shell&#x27;: None, &#x27;run&#x27;: &#x27;&#x27;, &#x27;log_filename&#x27;: &#x27;httpserver.log&#x27;, &#x27;profiler_dir&#x27;: None, &#x27;args&#x27;: [&#x27;&#x27;], &#x27;socket_timeout&#x27;: 5, &#x27;ssl_ca_certificate&#x27;: None, &#x27;scheduler&#x27;: None, &#x27;interfaces&#x27;: None, &#x27;ssl_private_key&#x27;: &#x27;&#x27;, &#x27;scheduler_groups&#x27;: None, &#x27;password&#x27;: &#x27;&lt;ask&gt;&#x27;, &#x27;request_queue_size&#x27;: 5, &#x27;ssl_certificate&#x27;: &#x27;&#x27;, &#x27;cronjob&#x27;: False, &#x27;numthreads&#x27;: None, &#x27;quiet&#x27;: False, &#x27;import_models&#x27;: False, &#x27;timeout&#x27;: 10, &#x27;plain&#x27;: False, &#x27;nobanner&#x27;: False}&gt;</div></td></tr><tr><td style="font-weight:bold;vertical-align:top;">db_sessions</td><td style="vertical-align:top;">:</td><td><div>set([])</div></td></tr><tr><td style="font-weight:bold;vertical-align:top;">debugging</td><td style="vertical-align:top;">:</td><td><div>True</div></td></tr><tr><td style="font-weight:bold;vertical-align:top;">gluon_parent</td><td style="vertical-align:top;">:</td><td><div>C:\\Users\\Leandro\\Documents\\CJR\\DIPRO\\PROJETOS\\G\xeanios\\genios\\ProjetoGenios\\web2py</div></td></tr><tr><td style="font-weight:bold;vertical-align:top;">http_accept</td><td style="vertical-align:top;">:</td><td><div>text/html,application/xhtml+xml,application/xml;q=0.9,image/webp,*/*;q=0.8</div></td></tr><tr><td style="font-weight:bold;vertical-align:top;">http_accept_encoding</td><td style="vertical-align:top;">:</td><td><div>gzip,deflate,sdch</div></td></tr><tr><td style="font-weight:bold;vertical-align:top;">http_accept_language</td><td style="vertical-align:top;">:</td><td><div>en-US,en;q=0.8,pt;q=0.6</div></td></tr><tr><td style="font-weight:bold;vertical-align:top;">http_connection</td><td style="vertical-align:top;">:</td><td><div>keep-alive</div></td></tr><tr><td style="font-weight:bold;vertical-align:top;">http_cookie</td><td style="vertical-align:top;">:</td><td><div>session_id_welcome=127.0.0.1-cea98905-a10f-491b-90eb-5c73580a2a94; session_id_admin=127.0.0.1-4a323fa7-1d11-49fd-94f0-74a42164c43b; session_id_genios=127.0.0.1-6dcd85a1-cbb0-4389-9b4e-40be5641ff47</div></td></tr><tr><td style="font-weight:bold;vertical-align:top;">http_host</td><td style="vertical-align:top;">:</td><td><div>127.0.0.1:8000</div></td></tr><tr><td style="font-weight:bold;vertical-align:top;">http_referer</td><td style="vertical-align:top;">:</td><td><div>http://127.0.0.1:8000/genios/responsavel/alterar</div></td></tr><tr><td style="font-weight:bold;vertical-align:top;">http_user_agent</td><td style="vertical-align:top;">:</td><td><div>Mozilla/5.0 (Windows NT 6.2; WOW64) AppleWebKit/537.36 (KHTML, like Gecko) Chrome/35.0.1916.114 Safari/537.36</div></td></tr><tr><td style="font-weight:bold;vertical-align:top;">is_jython</td><td style="vertical-align:top;">:</td><td><div>False</div></td></tr><tr><td style="font-weight:bold;vertical-align:top;">is_pypy</td><td style="vertical-align:top;">:</td><td><div>False</div></td></tr><tr><td style="font-weight:bold;vertical-align:top;">is_source</td><td style="vertical-align:top;">:</td><td><div>False</div></td></tr><tr><td style="font-weight:bold;vertical-align:top;">local_hosts</td><td style="vertical-align:top;">:</td><td><div><table><tr><td><div>::ffff:127.0.0.1</div></td></tr><tr><td><div>::1</div></td></tr><tr><td><div>PC_LEO</div></td></tr><tr><td><div>172.30.36.223</div></td></tr><tr><td><div>fe80::2c01:c2a:dede:17a1%13</div></td></tr><tr><td><div>fe80::ec1f:2d88:f68:a805%21</div></td></tr><tr><td><div>127.0.0.1</div></td></tr><tr><td><div>192.168.56.1</div></td></tr></table></div></td></tr><tr><td style="font-weight:bold;vertical-align:top;">path_info</td><td style="vertical-align:top;">:</td><td><div>/genios/responsavel/marcaraulas</div></td></tr><tr><td style="font-weight:bold;vertical-align:top;">query_string</td><td style="vertical-align:top;">:</td><td><div></div></td></tr><tr><td style="font-weight:bold;vertical-align:top;">remote_addr</td><td style="vertical-align:top;">:</td><td><div>127.0.0.1</div></td></tr><tr><td style="font-weight:bold;vertical-align:top;">remote_port</td><td style="vertical-align:top;">:</td><td><div>57215</div></td></tr><tr><td style="font-weight:bold;vertical-align:top;">request_method</td><td style="vertical-align:top;">:</td><td><div>GET</div></td></tr><tr><td style="font-weight:bold;vertical-align:top;">request_uri</td><td style="vertical-align:top;">:</td><td><div>/genios/responsavel/marcaraulas</div></td></tr><tr><td style="font-weight:bold;vertical-align:top;">script_name</td><td style="vertical-align:top;">:</td><td><div></div></td></tr><tr><td style="font-weight:bold;vertical-align:top;">server_name</td><td style="vertical-align:top;">:</td><td><div>PC_LEO</div></td></tr><tr><td style="font-weight:bold;vertical-align:top;">server_port</td><td style="vertical-align:top;">:</td><td><div>8000</div></td></tr><tr><td style="font-weight:bold;vertical-align:top;">server_protocol</td><td style="vertical-align:top;">:</td><td><div>HTTP/1.1</div></td></tr><tr><td style="font-weight:bold;vertical-align:top;">server_software</td><td style="vertical-align:top;">:</td><td><div>Rocket 1.2.6</div></td></tr><tr><td style="font-weight:bold;vertical-align:top;">web2py_path</td><td style="vertical-align:top;">:</td><td><div>C:\\Users\\Leandro\\Documents\\CJR\\DIPRO\\PROJETOS\\G\xeanios\\genios\\ProjetoGenios\\web2py</div></td></tr><tr><td style="font-weight:bold;vertical-align:top;">web2py_version</td><td style="vertical-align:top;">:</td><td><div>2.9.5-stable+timestamp.2014.03.20.22.57.13</div></td></tr><tr><td style="font-weight:bold;vertical-align:top;">wsgi.errors</td><td style="vertical-align:top;">:</td><td><div>&lt;open file &#x27;&lt;stderr&gt;&#x27;, mode &#x27;w&#x27; at 0x004560D0&gt;</div></td></tr><tr><td style="font-weight:bold;vertical-align:top;">wsgi.file_wrapper</td><td style="vertical-align:top;">:</td><td><div>&lt;class wsgiref.util.FileWrapper at 0x02F3F180&gt;</div></td></tr><tr><td style="font-weight:bold;vertical-align:top;">wsgi.input</td><td style="vertical-align:top;">:</td><td><div>&lt;socket._fileobject object at 0x075B7E30&gt;</div></td></tr><tr><td style="font-weight:bold;vertical-align:top;">wsgi.multiprocess</td><td style="vertical-align:top;">:</td><td><div>False</div></td></tr><tr><td style="font-weight:bold;vertical-align:top;">wsgi.multithread</td><td style="vertical-align:top;">:</td><td><div>True</div></td></tr><tr><td style="font-weight:bold;vertical-align:top;">wsgi.run_once</td><td style="vertical-align:top;">:</td><td><div>False</div></td></tr><tr><td style="font-weight:bold;vertical-align:top;">wsgi.url_scheme</td><td style="vertical-align:top;">:</td><td><div>http</div></td></tr><tr><td style="font-weight:bold;vertical-align:top;">wsgi.version</td><td style="vertical-align:top;">:</td><td><div><table><tr><td><div>1</div></td></tr><tr><td><div>0</div></td></tr></table></div></td></tr><tr><td style="font-weight:bold;vertical-align:top;">wsgi_errors</td><td style="vertical-align:top;">:</td><td><div>&lt;open file &#x27;&lt;stderr&gt;&#x27;, mode &#x27;w&#x27; at 0x004560D0&gt;</div></td></tr><tr><td style="font-weight:bold;vertical-align:top;">wsgi_file_wrapper</td><td style="vertical-align:top;">:</td><td><div>&lt;class wsgiref.util.FileWrapper at 0x02F3F180&gt;</div></td></tr><tr><td style="font-weight:bold;vertical-align:top;">wsgi_input</td><td style="vertical-align:top;">:</td><td><div>&lt;socket._fileobject object at 0x075B7E30&gt;</div></td></tr><tr><td style="font-weight:bold;vertical-align:top;">wsgi_multiprocess</td><td style="vertical-align:top;">:</td><td><div>False</div></td></tr><tr><td style="font-weight:bold;vertical-align:top;">wsgi_multithread</td><td style="vertical-align:top;">:</td><td><div>True</div></td></tr><tr><td style="font-weight:bold;vertical-align:top;">wsgi_run_once</td><td style="vertical-align:top;">:</td><td><div>False</div></td></tr><tr><td style="font-weight:bold;vertical-align:top;">wsgi_url_scheme</td><td style="vertical-align:top;">:</td><td><div>http</div></td></tr><tr><td style="font-weight:bold;vertical-align:top;">wsgi_version</td><td style="vertical-align:top;">:</td><td><div><table><tr><td><div>1</div></td></tr><tr><td><div>0</div></td></tr></table></div></td></tr></table></div></td></tr><tr><td style="font-weight:bold;vertical-align:top;">extension</td><td style="vertical-align:top;">:</td><td><div>html</div></td></tr><tr><td style="font-weight:bold;vertical-align:top;">folder</td><td style="vertical-align:top;">:</td><td><div>C:\\Users\\Leandro\\Documents\\CJR\\DIPRO\\PROJETOS\\G\xeanios\\genios\\ProjetoGenios\\web2py\\applications\\genios\\</div></td></tr><tr><td style="font-weight:bold;vertical-align:top;">function</td><td style="vertical-align:top;">:</td><td><div>marcaraulas</div></td></tr><tr><td style="font-weight:bold;vertical-align:top;">global_settings</td><td style="vertical-align:top;">:</td><td><div><table><tr><td style="font-weight:bold;vertical-align:top;">app_folders</td><td style="vertical-align:top;">:</td><td><div>set([&#x27;C:\\\\Users\\\\Leandro\\\\Documents\\\\CJR\\\\DIPRO\\\\PROJETOS\\\\G\\xeanios\\\\genios\\\\ProjetoGenios\\\\web2py\\\\applications\\\\admin\\\\&#x27;, &#x27;C:\\\\Users\\\\Leandro\\\\Documents\\\\CJR\\\\DIPRO\\\\PROJETOS\\\\G\\xeanios\\\\genios\\\\ProjetoGenios\\\\web2py\\\\applications\\\\welcome\\\\&#x27;, &#x27;C:\\\\Users\\\\Leandro\\\\Documents\\\\CJR\\\\DIPRO\\\\PROJETOS\\\\G\\xeanios\\\\genios\\\\ProjetoGenios\\\\web2py\\\\applications\\\\Genios\\\\&#x27;, &#x27;C:\\\\Users\\\\Leandro\\\\Documents\\\\CJR\\\\DIPRO\\\\PROJETOS\\\\G\\xeanios\\\\genios\\\\ProjetoGenios\\\\web2py\\\\applications\\\\genios\\\\&#x27;])</div></td></tr><tr><td style="font-weight:bold;vertical-align:top;">applications_parent</td><td style="vertical-align:top;">:</td><td><div>C:\\Users\\Leandro\\Documents\\CJR\\DIPRO\\PROJETOS\\G\xeanios\\genios\\ProjetoGenios\\web2py</div></td></tr><tr><td style="font-weight:bold;vertical-align:top;">cmd_args</td><td style="vertical-align:top;">:</td><td><div><table></table></div></td></tr><tr><td style="font-weight:bold;vertical-align:top;">cmd_options</td><td style="vertical-align:top;">:</td><td><div>&lt;Values at 0x2f76e18: {&#x27;verbose&#x27;: False, &#x27;ip&#x27;: &#x27;127.0.0.1&#x27;, &#x27;debuglevel&#x27;: 30, &#x27;with_scheduler&#x27;: False, &#x27;ips&#x27;: [&#x27;fe80::2c01:c2a:dede:17a1%13&#x27;, &#x27;fe80::ec1f:2d88:f68:a805%21&#x27;, &#x27;172.30.36.223&#x27;, &#x27;192.168.56.1&#x27;], &#x27;shutdown_timeout&#x27;: 5, &#x27;taskbar&#x27;: False, &#x27;with_coverage&#x27;: False, &#x27;port&#x27;: 8000, &#x27;maxthreads&#x27;: None, &#x27;softcron&#x27;: False, &#x27;server_name&#x27;: &#x27;PC_LEO&#x27;, &#x27;bpython&#x27;: False, &#x27;nogui&#x27;: False, &#x27;pid_filename&#x27;: &#x27;httpserver.pid&#x27;, &#x27;extcron&#x27;: False, &#x27;runcron&#x27;: False, &#x27;run_system_tests&#x27;: False, &#x27;test&#x27;: None, &#x27;folder&#x27;: &#x27;C:\\\\Users\\\\Leandro\\\\Documents\\\\CJR\\\\DIPRO\\\\PROJETOS\\\\G\\xeanios\\\\genios\\\\ProjetoGenios\\\\web2py&#x27;, &#x27;config&#x27;: &#x27;&#x27;, &#x27;minthreads&#x27;: None, &#x27;shell&#x27;: None, &#x27;run&#x27;: &#x27;&#x27;, &#x27;log_filename&#x27;: &#x27;httpserver.log&#x27;, &#x27;profiler_dir&#x27;: None, &#x27;args&#x27;: [&#x27;&#x27;], &#x27;socket_timeout&#x27;: 5, &#x27;ssl_ca_certificate&#x27;: None, &#x27;scheduler&#x27;: None, &#x27;interfaces&#x27;: None, &#x27;ssl_private_key&#x27;: &#x27;&#x27;, &#x27;scheduler_groups&#x27;: None, &#x27;password&#x27;: &#x27;&lt;ask&gt;&#x27;, &#x27;request_queue_size&#x27;: 5, &#x27;ssl_certificate&#x27;: &#x27;&#x27;, &#x27;cronjob&#x27;: False, &#x27;numthreads&#x27;: None, &#x27;quiet&#x27;: False, &#x27;import_models&#x27;: False, &#x27;timeout&#x27;: 10, &#x27;plain&#x27;: False, &#x27;nobanner&#x27;: False}&gt;</div></td></tr><tr><td style="font-weight:bold;vertical-align:top;">db_sessions</td><td style="vertical-align:top;">:</td><td><div>set([])</div></td></tr><tr><td style="font-weight:bold;vertical-align:top;">debugging</td><td style="vertical-align:top;">:</td><td><div>True</div></td></tr><tr><td style="font-weight:bold;vertical-align:top;">gluon_parent</td><td style="vertical-align:top;">:</td><td><div>C:\\Users\\Leandro\\Documents\\CJR\\DIPRO\\PROJETOS\\G\xeanios\\genios\\ProjetoGenios\\web2py</div></td></tr><tr><td style="font-weight:bold;vertical-align:top;">is_jython</td><td style="vertical-align:top;">:</td><td><div>False</div></td></tr><tr><td style="font-weight:bold;vertical-align:top;">is_pypy</td><td style="vertical-align:top;">:</td><td><div>False</div></td></tr><tr><td style="font-weight:bold;vertical-align:top;">is_source</td><td style="vertical-align:top;">:</td><td><div>False</div></td></tr><tr><td style="font-weight:bold;vertical-align:top;">local_hosts</td><td style="vertical-align:top;">:</td><td><div><table><tr><td><div>::ffff:127.0.0.1</div></td></tr><tr><td><div>::1</div></td></tr><tr><td><div>PC_LEO</div></td></tr><tr><td><div>172.30.36.223</div></td></tr><tr><td><div>fe80::2c01:c2a:dede:17a1%13</div></td></tr><tr><td><div>fe80::ec1f:2d88:f68:a805%21</div></td></tr><tr><td><div>127.0.0.1</div></td></tr><tr><td><div>192.168.56.1</div></td></tr></table></div></td></tr><tr><td style="font-weight:bold;vertical-align:top;">web2py_version</td><td style="vertical-align:top;">:</td><td><div>2.9.5-stable+timestamp.2014.03.20.22.57.13</div></td></tr></table></div></td></tr><tr><td style="font-weight:bold;vertical-align:top;">is_https</td><td style="vertical-align:top;">:</td><td><div>False</div></td></tr><tr><td style="font-weight:bold;vertical-align:top;">is_local</td><td style="vertical-align:top;">:</td><td><div>True</div></td></tr><tr><td style="font-weight:bold;vertical-align:top;">is_restful</td><td style="vertical-align:top;">:</td><td><div>False</div></td></tr><tr><td style="font-weight:bold;vertical-align:top;">now</td><td style="vertical-align:top;">:</td><td><div>datetime.datetime(2014, 6, 20, 18, 1, 50, 140000)</div></td></tr><tr><td style="font-weight:bold;vertical-align:top;">raw_args</td><td style="vertical-align:top;">:</td><td><div></div></td></tr><tr><td style="font-weight:bold;vertical-align:top;">raw_extension</td><td style="vertical-align:top;">:</td><td><div>None</div></td></tr><tr><td style="font-weight:bold;vertical-align:top;">url</td><td style="vertical-align:top;">:</td><td><div>/genios/responsavel/marcaraulas</div></td></tr><tr><td style="font-weight:bold;vertical-align:top;">utcnow</td><td style="vertical-align:top;">:</td><td><div>datetime.datetime(2014, 6, 20, 21, 1, 50, 140000)</div></td></tr><tr><td style="font-weight:bold;vertical-align:top;">uuid</td><td style="vertical-align:top;">:</td><td><div>genios/127.0.0.1.2014-06-20.18-01-50.fd7bd60e-eb46-4133-bdc1-e93b92c94ab5</div></td></tr><tr><td style="font-weight:bold;vertical-align:top;">wsgi</td><td style="vertical-align:top;">:</td><td><div>&lt;gluon.main.LazyWSGI object at 0x074CA7D0&gt;</div></td></tr></table></div>'
tRp58
sS'frames'
p59
(lp60
(dp61
S'file'
p62
S'C:\\home\\mdipierro\\make_web2py\\web2py\\gluon\\restricted.py'
p63
sS'dump'
p64
(dp65
sS'lnum'
p66
I220
sS'lines'
p67
(dp68
sS'call'
p69
S"(code='# coding: utf8\\n# try something like\\n# ENUMERATIO...e)\\n\\nresponse._vars=response._caller(marcaraulas)\\n', environment={'A': <class 'gluon.html.A'>, 'ALTERA_FILHO': 1, 'ALTERA_RESPONSAVEL': 3, 'ANY_OF': <class 'gluon.validators.ANY_OF'>, 'Auth': <class 'gluon.tools.Auth'>, 'B': <class 'gluon.html.B'>, 'BEAUTIFY': <class 'gluon.html.BEAUTIFY'>, 'BODY': <class 'gluon.html.BODY'>, 'BR': <class 'gluon.html.BR'>, 'BUTTON': <class 'gluon.html.BUTTON'>, ...}, layer='C:\\\\Users\\\\Leandro\\\\Documents\\\\CJR\\\\DIPRO\\\\PROJETOS\\\\G\\xea...py\\\\applications\\\\genios\\\\controllers/responsavel.py')"
p70
sS'func'
p71
S'restricted'
p72
sa(dp73
g62
S'C:\\Users\\Leandro\\Documents\\CJR\\DIPRO\\PROJETOS\\G\xeanios\\genios\\ProjetoGenios\\web2py\\applications\\genios\\controllers\\responsavel.py'
p74
sg64
(dp75
sg66
I172
sg67
(dp76
I161
S''
sI162
S'def download():'
p77
sI163
S'    return response.render()'
p78
sI164
S''
sI165
S'def marcaraulas():'
p79
sI166
S'    rows = db(db.tb_usuario.id_usuario == db.ta_usuario_x_materia.id_usuario and db.tb_materia.id_materia == db.ta_usuario_x_materia.id_materia).select()'
p80
sI167
S''
sI168
S'    table = SQLTABLE(rows)'
p81
sI169
S''
sI170
S'    return dict(table=table)'
p82
ssg69
S'()'
p83
sg71
S'<module>'
p84
sa(dp85
g62
S'C:\\home\\mdipierro\\make_web2py\\web2py\\gluon\\globals.py'
p86
sg64
(dp87
sg66
I385
sg67
(dp88
sg69
S'(f=<function marcaraulas>)'
p89
sg71
S'<lambda>'
p90
sa(dp91
g62
S'C:\\Users\\Leandro\\Documents\\CJR\\DIPRO\\PROJETOS\\G\xeanios\\genios\\ProjetoGenios\\web2py\\applications\\genios\\controllers\\responsavel.py'
p92
sg64
(dp93
S'db.tb_usuario.id_usuario'
p94
S'<gluon.dal.Field object>'
p95
sS'rows'
p96
S'undefined'
p97
sS'db.ta_usuario_x_materia.id_materia'
p98
g97
sS'db.ta_usuario_x_materia.id_usuario'
p99
g97
sS'db.tb_materia.id_materia'
p100
g97
sS'db.ta_usuario_x_materia'
p101
S'<Table ta_usuario_x_materia (id,fk_id_usuario,fk_id_materia,ativo)>'
p102
sS'global db'
p103
S'<DAL uri="mysql:******@localhost/mydb">'
p104
sS'db.tb_usuario'
p105
S'<Table tb_usuario (id_usuario,fk_id_perfil,nome,email,senha,ano_escolar,colegio,ativo)>'
p106
sS'db.tb_materia'
p107
S'<Table tb_materia (id,nome,ativo)>'
p108
ssg66
I166
sg67
(dp109
I161
S''
sI162
S'def download():'
p110
sI163
S'    return response.render()'
p111
sI164
S''
sI165
S'def marcaraulas():'
p112
sI166
S'    rows = db(db.tb_usuario.id_usuario == db.ta_usuario_x_materia.id_usuario and db.tb_materia.id_materia == db.ta_usuario_x_materia.id_materia).select()'
p113
sI167
S''
sI168
S'    table = SQLTABLE(rows)'
p114
sI169
S''
sI170
S'    return dict(table=table)'
p115
ssg69
S'()'
p116
sg71
S'marcaraulas'
p117
sa(dp118
g62
S'C:\\home\\mdipierro\\make_web2py\\web2py\\gluon\\dal.py'
p119
sg64
(dp120
sg66
I8912
sg67
(dp121
sg69
S"(self=<Table ta_usuario_x_materia (id,fk_id_usuario,fk_id_materia,ativo)>, key='id_usuario')"
p122
sg71
g20
sasS'pyver'
p123
S'Python 2.7.6: C:\\Users\\Leandro\\Documents\\CJR\\DIPRO\\PROJETOS\\G\xeanios\\genios\\ProjetoGenios\\web2py\\web2py.exe (prefix: C:\\Python27)'
p124
sS'session'
p125
g57
(S's9\x03\x00\x00<div><table><tr><td style="font-weight:bold;vertical-align:top;">SetPerfis</td><td style="vertical-align:top;">:</td><td><div><table><thead><tr><th>tb_perfil.id_perfil</th><th>tb_perfil.nome</th><th>tb_perfil.ativo</th></tr></thead><tbody><tr class="w2p_even even"><td>1</td><td>Responsavel</td><td>1</td></tr><tr class="w2p_odd odd"><td>3</td><td>Professor</td><td>0</td></tr></tbody></table></div></td></tr><tr><td style="font-weight:bold;vertical-align:top;">id_user</td><td style="vertical-align:top;">:</td><td><div>12L</div></td></tr><tr><td style="font-weight:bold;vertical-align:top;">idpai</td><td style="vertical-align:top;">:</td><td><div>12L</div></td></tr><tr><td style="font-weight:bold;vertical-align:top;">perfilUser</td><td style="vertical-align:top;">:</td><td><div>Responsavel</div></td></tr></table></div>'
tRp126
sS'etype'
p127
S"<type 'exceptions.AttributeError'>"
p128
sS'date'
p129
S'Fri Jun 20 18:01:50 2014'
p130
sS'response'
p131
g57
(S's\xe6\x1e\x00\x00<div><table><tr><td style="font-weight:bold;vertical-align:top;">body</td><td style="vertical-align:top;">:</td><td><div>&lt;cStringIO.StringO object at 0x0778A640&gt;</div></td></tr><tr><td style="font-weight:bold;vertical-align:top;">cookies</td><td style="vertical-align:top;">:</td><td><div><table><tr><td style="font-weight:bold;vertical-align:top;">session_id_genios</td><td style="vertical-align:top;">:</td><td><div>127.0.0.1-6dcd85a1-cbb0-4389-9b4e-40be5641ff47<table><tr><td style="font-weight:bold;vertical-align:top;">comment</td><td style="vertical-align:top;">:</td><td><div></div></td></tr><tr><td style="font-weight:bold;vertical-align:top;">domain</td><td style="vertical-align:top;">:</td><td><div></div></td></tr><tr><td style="font-weight:bold;vertical-align:top;">expires</td><td style="vertical-align:top;">:</td><td><div></div></td></tr><tr><td style="font-weight:bold;vertical-align:top;">httponly</td><td style="vertical-align:top;">:</td><td><div></div></td></tr><tr><td style="font-weight:bold;vertical-align:top;">max-age</td><td style="vertical-align:top;">:</td><td><div></div></td></tr><tr><td style="font-weight:bold;vertical-align:top;">path</td><td style="vertical-align:top;">:</td><td><div>/</div></td></tr><tr><td style="font-weight:bold;vertical-align:top;">secure</td><td style="vertical-align:top;">:</td><td><div></div></td></tr><tr><td style="font-weight:bold;vertical-align:top;">version</td><td style="vertical-align:top;">:</td><td><div></div></td></tr></table></div></td></tr></table></div></td></tr><tr><td style="font-weight:bold;vertical-align:top;">delimiters</td><td style="vertical-align:top;">:</td><td><div><table><tr><td><div>{{</div></td></tr><tr><td><div>}}</div></td></tr></table></div></td></tr><tr><td style="font-weight:bold;vertical-align:top;">files</td><td style="vertical-align:top;">:</td><td><div><table></table></div></td></tr><tr><td style="font-weight:bold;vertical-align:top;">flash</td><td style="vertical-align:top;">:</td><td><div></div></td></tr><tr><td style="font-weight:bold;vertical-align:top;">generic_patterns</td><td style="vertical-align:top;">:</td><td><div><table></table></div></td></tr><tr><td style="font-weight:bold;vertical-align:top;">google_analytics_id</td><td style="vertical-align:top;">:</td><td><div>None</div></td></tr><tr><td style="font-weight:bold;vertical-align:top;">headers</td><td style="vertical-align:top;">:</td><td><div><table><tr><td style="font-weight:bold;vertical-align:top;">X-Powered-By</td><td style="vertical-align:top;">:</td><td><div>web2py</div></td></tr></table></div></td></tr><tr><td style="font-weight:bold;vertical-align:top;">menu</td><td style="vertical-align:top;">:</td><td><div><table><tr><td><div><table><tr><td><div>Home</div></td></tr><tr><td><div>False</div></td></tr><tr><td><div>/genios/default/index</div></td></tr><tr><td><div><table></table></div></td></tr></table></div></td></tr><tr><td><div><table><tr><td><div>Responsavel</div></td></tr><tr><td><div>False</div></td></tr><tr><td><div>/genios/responsavel/index</div></td></tr><tr><td><div><table></table></div></td></tr></table></div></td></tr><tr><td><div><table><tr><td><div>Administrador</div></td></tr><tr><td><div>False</div></td></tr><tr><td><div>/genios/administrador/cadastrar_professor</div></td></tr><tr><td><div><table></table></div></td></tr></table></div></td></tr><tr><td><div><table><tr><td><div>Cidades</div></td></tr><tr><td><div>False</div></td></tr><tr><td><div>/genios/administrador/cidades</div></td></tr><tr><td><div><table></table></div></td></tr></table></div></td></tr><tr><td><div><table><tr><td><div>Aulas</div></td></tr><tr><td><div>False</div></td></tr><tr><td><div>/genios/responsavel/marcaraulas</div></td></tr><tr><td><div><table></table></div></td></tr></table></div></td></tr></table></div></td></tr><tr><td style="font-weight:bold;vertical-align:top;">meta</td><td style="vertical-align:top;">:</td><td><div><table><tr><td style="font-weight:bold;vertical-align:top;">author</td><td style="vertical-align:top;">:</td><td><div>Your Name &lt;you@example.com&gt;</div></td></tr><tr><td style="font-weight:bold;vertical-align:top;">generator</td><td style="vertical-align:top;">:</td><td><div>Web2py Web Framework</div></td></tr><tr><td style="font-weight:bold;vertical-align:top;">keywords</td><td style="vertical-align:top;">:</td><td><div>web2py, python, framework</div></td></tr></table></div></td></tr><tr><td style="font-weight:bold;vertical-align:top;">models_to_run</td><td style="vertical-align:top;">:</td><td><div><table><tr><td><div>^\\w+\\.py$</div></td></tr><tr><td><div>^responsavel/\\w+\\.py$</div></td></tr><tr><td><div>^responsavel/marcaraulas/\\w+\\.py$</div></td></tr></table></div></td></tr><tr><td style="font-weight:bold;vertical-align:top;">postprocessing</td><td style="vertical-align:top;">:</td><td><div><table></table></div></td></tr><tr><td style="font-weight:bold;vertical-align:top;">session_client</td><td style="vertical-align:top;">:</td><td><div>127.0.0.1</div></td></tr><tr><td style="font-weight:bold;vertical-align:top;">session_cookie_compression_level</td><td style="vertical-align:top;">:</td><td><div>None</div></td></tr><tr><td style="font-weight:bold;vertical-align:top;">session_cookie_expires</td><td style="vertical-align:top;">:</td><td><div>None</div></td></tr><tr><td style="font-weight:bold;vertical-align:top;">session_cookie_key</td><td style="vertical-align:top;">:</td><td><div>None</div></td></tr><tr><td style="font-weight:bold;vertical-align:top;">session_data_name</td><td style="vertical-align:top;">:</td><td><div>session_data_genios</div></td></tr><tr><td style="font-weight:bold;vertical-align:top;">session_file</td><td style="vertical-align:top;">:</td><td><div>&lt;open file &#x27;C:\\\\Users\\\\Leandro\\\\Documents\\\\CJR\\\\DIPRO\\\\PROJETOS\\\\G\\xeanios\\\\genios\\\\ProjetoGenios\\\\web2py\\\\applications\\\\genios\\\\sessions\\\\127.0.0.1-6dcd85a1-cbb0-4389-9b4e-40be5641ff47&#x27;, mode &#x27;rb+&#x27; at 0x071FE078&gt;</div></td></tr><tr><td style="font-weight:bold;vertical-align:top;">session_filename</td><td style="vertical-align:top;">:</td><td><div>C:\\Users\\Leandro\\Documents\\CJR\\DIPRO\\PROJETOS\\G\xeanios\\genios\\ProjetoGenios\\web2py\\applications\\genios\\sessions\\127.0.0.1-6dcd85a1-cbb0-4389-9b4e-40be5641ff47</div></td></tr><tr><td style="font-weight:bold;vertical-align:top;">session_hash</td><td style="vertical-align:top;">:</td><td><div>7d8c52fc54622bba1dfa627d3e6c516e</div></td></tr><tr><td style="font-weight:bold;vertical-align:top;">session_id</td><td style="vertical-align:top;">:</td><td><div>127.0.0.1-6dcd85a1-cbb0-4389-9b4e-40be5641ff47</div></td></tr><tr><td style="font-weight:bold;vertical-align:top;">session_id_name</td><td style="vertical-align:top;">:</td><td><div>session_id_genios</div></td></tr><tr><td style="font-weight:bold;vertical-align:top;">session_locked</td><td style="vertical-align:top;">:</td><td><div>True</div></td></tr><tr><td style="font-weight:bold;vertical-align:top;">session_masterapp</td><td style="vertical-align:top;">:</td><td><div>genios</div></td></tr><tr><td style="font-weight:bold;vertical-align:top;">session_new</td><td style="vertical-align:top;">:</td><td><div>False</div></td></tr><tr><td style="font-weight:bold;vertical-align:top;">session_storage_type</td><td style="vertical-align:top;">:</td><td><div>file</div></td></tr><tr><td style="font-weight:bold;vertical-align:top;">status</td><td style="vertical-align:top;">:</td><td><div>200</div></td></tr><tr><td style="font-weight:bold;vertical-align:top;">subtitle</td><td style="vertical-align:top;">:</td><td><div></div></td></tr><tr><td style="font-weight:bold;vertical-align:top;">title</td><td style="vertical-align:top;">:</td><td><div>Genios</div></td></tr><tr><td style="font-weight:bold;vertical-align:top;">view</td><td style="vertical-align:top;">:</td><td><div>responsavel/marcaraulas.html</div></td></tr></table></div>'
tRp132
sS'locals'
p133
(dp134
S'self'
p135
S'<Table ta_usuario_x_materia (id,fk_id_usuario,fk_id_materia,ativo)>'
p136
sS'key'
p137
S"'id_usuario'"
p138
sssS'traceback'
p139
S'Traceback (most recent call last):\n  File "/home/mdipierro/make_web2py/web2py/gluon/restricted.py", line 220, in restricted\n  File "C:\\Users\\Leandro\\Documents\\CJR\\DIPRO\\PROJETOS\\G\xeanios\\genios\\ProjetoGenios\\web2py\\applications\\genios\\controllers/responsavel.py", line 172, in <module>\n  File "/home/mdipierro/make_web2py/web2py/gluon/globals.py", line 385, in <lambda>\n  File "C:\\Users\\Leandro\\Documents\\CJR\\DIPRO\\PROJETOS\\G\xeanios\\genios\\ProjetoGenios\\web2py\\applications\\genios\\controllers/responsavel.py", line 166, in marcaraulas\n    rows = db(db.tb_usuario.id_usuario == db.ta_usuario_x_materia.id_usuario and db.tb_materia.id_materia == db.ta_usuario_x_materia.id_materia).select()\n  File "/home/mdipierro/make_web2py/web2py/gluon/dal.py", line 8912, in __getitem__\nAttributeError: \'Table\' object has no attribute \'id_usuario\'\n'
p140
s.